
do-nothing:     file format elf32-i386


Disassembly of section .text:

08048094 <main>:
 8048094:	55                   	push   %ebp
 8048095:	89 e5                	mov    %esp,%ebp
 8048097:	b8 a2 00 00 00       	mov    $0xa2,%eax
 804809c:	5d                   	pop    %ebp
 804809d:	c3                   	ret    

0804809e <fpu_push>:
 804809e:	55                   	push   %ebp
 804809f:	89 e5                	mov    %esp,%ebp
 80480a1:	ff 75 08             	pushl  0x8(%ebp)
 80480a4:	d9 04 24             	flds   (%esp)
 80480a7:	83 c4 04             	add    $0x4,%esp
 80480aa:	90                   	nop
 80480ab:	5d                   	pop    %ebp
 80480ac:	c3                   	ret    

080480ad <fpu_pop>:
 80480ad:	55                   	push   %ebp
 80480ae:	89 e5                	mov    %esp,%ebp
 80480b0:	83 ec 10             	sub    $0x10,%esp
 80480b3:	83 ec 04             	sub    $0x4,%esp
 80480b6:	d9 1c 24             	fstps  (%esp)
 80480b9:	8b 04 24             	mov    (%esp),%eax
 80480bc:	83 c4 04             	add    $0x4,%esp
 80480bf:	89 45 fc             	mov    %eax,-0x4(%ebp)
 80480c2:	8b 45 fc             	mov    -0x4(%ebp),%eax
 80480c5:	c9                   	leave  
 80480c6:	c3                   	ret    

080480c7 <console_init>:
 80480c7:	55                   	push   %ebp
 80480c8:	89 e5                	mov    %esp,%ebp
 80480ca:	83 ec 18             	sub    $0x18,%esp
 80480cd:	c7 04 24 42 c9 04 08 	movl   $0x804c942,(%esp)
 80480d4:	e8 3a 02 00 00       	call   8048313 <lock_check_init>
 80480d9:	90                   	nop
 80480da:	c9                   	leave  
 80480db:	c3                   	ret    

080480dc <vmsg>:
 80480dc:	55                   	push   %ebp
 80480dd:	89 e5                	mov    %esp,%ebp
 80480df:	53                   	push   %ebx
 80480e0:	83 ec 14             	sub    $0x14,%esp
 80480e3:	a1 64 ce 04 08       	mov    0x804ce64,%eax
 80480e8:	89 44 24 0c          	mov    %eax,0xc(%esp)
 80480ec:	c7 44 24 08 40 b1 04 	movl   $0x804b140,0x8(%esp)
 80480f3:	08 
 80480f4:	c7 44 24 04 00 04 00 	movl   $0x400,0x4(%esp)
 80480fb:	00 
 80480fc:	c7 04 24 60 c9 04 08 	movl   $0x804c960,(%esp)
 8048103:	e8 8c 0a 00 00       	call   8048b94 <snprintf>
 8048108:	c7 04 24 60 c9 04 08 	movl   $0x804c960,(%esp)
 804810f:	e8 0a 22 00 00       	call   804a31e <strlen>
 8048114:	ba 00 04 00 00       	mov    $0x400,%edx
 8048119:	89 d3                	mov    %edx,%ebx
 804811b:	29 c3                	sub    %eax,%ebx
 804811d:	c7 04 24 60 c9 04 08 	movl   $0x804c960,(%esp)
 8048124:	e8 f5 21 00 00       	call   804a31e <strlen>
 8048129:	8d 90 60 c9 04 08    	lea    0x804c960(%eax),%edx
 804812f:	8b 45 0c             	mov    0xc(%ebp),%eax
 8048132:	89 44 24 0c          	mov    %eax,0xc(%esp)
 8048136:	8b 45 08             	mov    0x8(%ebp),%eax
 8048139:	89 44 24 08          	mov    %eax,0x8(%esp)
 804813d:	89 5c 24 04          	mov    %ebx,0x4(%esp)
 8048141:	89 14 24             	mov    %edx,(%esp)
 8048144:	e8 b1 09 00 00       	call   8048afa <vsnprintf>
 8048149:	c7 04 24 60 c9 04 08 	movl   $0x804c960,(%esp)
 8048150:	e8 c9 21 00 00       	call   804a31e <strlen>
 8048155:	ba 00 04 00 00       	mov    $0x400,%edx
 804815a:	89 d3                	mov    %edx,%ebx
 804815c:	29 c3                	sub    %eax,%ebx
 804815e:	c7 04 24 60 c9 04 08 	movl   $0x804c960,(%esp)
 8048165:	e8 b4 21 00 00       	call   804a31e <strlen>
 804816a:	8d 90 60 c9 04 08    	lea    0x804c960(%eax),%edx
 8048170:	89 5c 24 08          	mov    %ebx,0x8(%esp)
 8048174:	8b 45 10             	mov    0x10(%ebp),%eax
 8048177:	89 44 24 04          	mov    %eax,0x4(%esp)
 804817b:	89 14 24             	mov    %edx,(%esp)
 804817e:	e8 22 22 00 00       	call   804a3a5 <strlcpy>
 8048183:	c7 04 24 60 c9 04 08 	movl   $0x804c960,(%esp)
 804818a:	e8 8f 21 00 00       	call   804a31e <strlen>
 804818f:	89 44 24 08          	mov    %eax,0x8(%esp)
 8048193:	c7 44 24 04 60 c9 04 	movl   $0x804c960,0x4(%esp)
 804819a:	08 
 804819b:	c7 04 24 01 00 00 00 	movl   $0x1,(%esp)
 80481a2:	e8 2b 2a 00 00       	call   804abd2 <write>
 80481a7:	90                   	nop
 80481a8:	83 c4 14             	add    $0x14,%esp
 80481ab:	5b                   	pop    %ebx
 80481ac:	5d                   	pop    %ebp
 80481ad:	c3                   	ret    

080481ae <msg>:
 80481ae:	55                   	push   %ebp
 80481af:	89 e5                	mov    %esp,%ebp
 80481b1:	83 ec 28             	sub    $0x28,%esp
 80481b4:	0f b6 05 40 c9 04 08 	movzbl 0x804c940,%eax
 80481bb:	84 c0                	test   %al,%al
 80481bd:	75 50                	jne    804820f <msg+0x61>
 80481bf:	0f b6 05 41 c9 04 08 	movzbl 0x804c941,%eax
 80481c6:	84 c0                	test   %al,%al
 80481c8:	74 0c                	je     80481d6 <msg+0x28>
 80481ca:	c7 04 24 42 c9 04 08 	movl   $0x804c942,(%esp)
 80481d1:	e8 cc 2b 00 00       	call   804ada2 <lock_acquire>
 80481d6:	8d 45 0c             	lea    0xc(%ebp),%eax
 80481d9:	89 45 f4             	mov    %eax,-0xc(%ebp)
 80481dc:	8b 45 f4             	mov    -0xc(%ebp),%eax
 80481df:	c7 44 24 08 46 b1 04 	movl   $0x804b146,0x8(%esp)
 80481e6:	08 
 80481e7:	89 44 24 04          	mov    %eax,0x4(%esp)
 80481eb:	8b 45 08             	mov    0x8(%ebp),%eax
 80481ee:	89 04 24             	mov    %eax,(%esp)
 80481f1:	e8 e6 fe ff ff       	call   80480dc <vmsg>
 80481f6:	0f b6 05 41 c9 04 08 	movzbl 0x804c941,%eax
 80481fd:	84 c0                	test   %al,%al
 80481ff:	74 0f                	je     8048210 <msg+0x62>
 8048201:	c7 04 24 42 c9 04 08 	movl   $0x804c942,(%esp)
 8048208:	e8 cc 2b 00 00       	call   804add9 <lock_release>
 804820d:	eb 01                	jmp    8048210 <msg+0x62>
 804820f:	90                   	nop
 8048210:	c9                   	leave  
 8048211:	c3                   	ret    

08048212 <fail>:
 8048212:	55                   	push   %ebp
 8048213:	89 e5                	mov    %esp,%ebp
 8048215:	83 ec 28             	sub    $0x28,%esp
 8048218:	8d 45 0c             	lea    0xc(%ebp),%eax
 804821b:	89 45 f4             	mov    %eax,-0xc(%ebp)
 804821e:	8b 45 f4             	mov    -0xc(%ebp),%eax
 8048221:	c7 44 24 08 48 b1 04 	movl   $0x804b148,0x8(%esp)
 8048228:	08 
 8048229:	89 44 24 04          	mov    %eax,0x4(%esp)
 804822d:	8b 45 08             	mov    0x8(%ebp),%eax
 8048230:	89 04 24             	mov    %eax,(%esp)
 8048233:	e8 a4 fe ff ff       	call   80480dc <vmsg>
 8048238:	c7 04 24 01 00 00 00 	movl   $0x1,(%esp)
 804823f:	e8 97 28 00 00       	call   804aadb <exit>

08048244 <swap>:
 8048244:	55                   	push   %ebp
 8048245:	89 e5                	mov    %esp,%ebp
 8048247:	83 ec 10             	sub    $0x10,%esp
 804824a:	8b 45 08             	mov    0x8(%ebp),%eax
 804824d:	89 45 f8             	mov    %eax,-0x8(%ebp)
 8048250:	8b 45 0c             	mov    0xc(%ebp),%eax
 8048253:	89 45 f4             	mov    %eax,-0xc(%ebp)
 8048256:	c7 45 fc 00 00 00 00 	movl   $0x0,-0x4(%ebp)
 804825d:	eb 34                	jmp    8048293 <swap+0x4f>
 804825f:	8b 55 f8             	mov    -0x8(%ebp),%edx
 8048262:	8b 45 fc             	mov    -0x4(%ebp),%eax
 8048265:	01 d0                	add    %edx,%eax
 8048267:	0f b6 00             	movzbl (%eax),%eax
 804826a:	88 45 f3             	mov    %al,-0xd(%ebp)
 804826d:	8b 55 f4             	mov    -0xc(%ebp),%edx
 8048270:	8b 45 fc             	mov    -0x4(%ebp),%eax
 8048273:	01 d0                	add    %edx,%eax
 8048275:	8b 4d f8             	mov    -0x8(%ebp),%ecx
 8048278:	8b 55 fc             	mov    -0x4(%ebp),%edx
 804827b:	01 ca                	add    %ecx,%edx
 804827d:	0f b6 00             	movzbl (%eax),%eax
 8048280:	88 02                	mov    %al,(%edx)
 8048282:	8b 55 f4             	mov    -0xc(%ebp),%edx
 8048285:	8b 45 fc             	mov    -0x4(%ebp),%eax
 8048288:	01 c2                	add    %eax,%edx
 804828a:	0f b6 45 f3          	movzbl -0xd(%ebp),%eax
 804828e:	88 02                	mov    %al,(%edx)
 8048290:	ff 45 fc             	incl   -0x4(%ebp)
 8048293:	8b 45 fc             	mov    -0x4(%ebp),%eax
 8048296:	3b 45 10             	cmp    0x10(%ebp),%eax
 8048299:	72 c4                	jb     804825f <swap+0x1b>
 804829b:	90                   	nop
 804829c:	c9                   	leave  
 804829d:	c3                   	ret    

0804829e <push_values_to_fpu>:
 804829e:	55                   	push   %ebp
 804829f:	89 e5                	mov    %esp,%ebp
 80482a1:	83 ec 14             	sub    $0x14,%esp
 80482a4:	c7 45 fc 00 00 00 00 	movl   $0x0,-0x4(%ebp)
 80482ab:	eb 1c                	jmp    80482c9 <push_values_to_fpu+0x2b>
 80482ad:	8b 45 fc             	mov    -0x4(%ebp),%eax
 80482b0:	8d 14 85 00 00 00 00 	lea    0x0(,%eax,4),%edx
 80482b7:	8b 45 08             	mov    0x8(%ebp),%eax
 80482ba:	01 d0                	add    %edx,%eax
 80482bc:	8b 00                	mov    (%eax),%eax
 80482be:	89 04 24             	mov    %eax,(%esp)
 80482c1:	e8 d8 fd ff ff       	call   804809e <fpu_push>
 80482c6:	ff 45 fc             	incl   -0x4(%ebp)
 80482c9:	8b 45 fc             	mov    -0x4(%ebp),%eax
 80482cc:	3b 45 0c             	cmp    0xc(%ebp),%eax
 80482cf:	7c dc                	jl     80482ad <push_values_to_fpu+0xf>
 80482d1:	90                   	nop
 80482d2:	c9                   	leave  
 80482d3:	c3                   	ret    

080482d4 <pop_values_from_fpu>:
 80482d4:	55                   	push   %ebp
 80482d5:	89 e5                	mov    %esp,%ebp
 80482d7:	53                   	push   %ebx
 80482d8:	83 ec 10             	sub    $0x10,%esp
 80482db:	8b 45 0c             	mov    0xc(%ebp),%eax
 80482de:	48                   	dec    %eax
 80482df:	89 45 f8             	mov    %eax,-0x8(%ebp)
 80482e2:	eb 21                	jmp    8048305 <pop_values_from_fpu+0x31>
 80482e4:	8b 45 f8             	mov    -0x8(%ebp),%eax
 80482e7:	8d 14 85 00 00 00 00 	lea    0x0(,%eax,4),%edx
 80482ee:	8b 45 08             	mov    0x8(%ebp),%eax
 80482f1:	01 d0                	add    %edx,%eax
 80482f3:	8b 18                	mov    (%eax),%ebx
 80482f5:	e8 b3 fd ff ff       	call   80480ad <fpu_pop>
 80482fa:	39 c3                	cmp    %eax,%ebx
 80482fc:	74 04                	je     8048302 <pop_values_from_fpu+0x2e>
 80482fe:	b0 00                	mov    $0x0,%al
 8048300:	eb 0b                	jmp    804830d <pop_values_from_fpu+0x39>
 8048302:	ff 4d f8             	decl   -0x8(%ebp)
 8048305:	83 7d f8 00          	cmpl   $0x0,-0x8(%ebp)
 8048309:	79 d9                	jns    80482e4 <pop_values_from_fpu+0x10>
 804830b:	b0 01                	mov    $0x1,%al
 804830d:	83 c4 10             	add    $0x10,%esp
 8048310:	5b                   	pop    %ebx
 8048311:	5d                   	pop    %ebp
 8048312:	c3                   	ret    

08048313 <lock_check_init>:
 8048313:	55                   	push   %ebp
 8048314:	89 e5                	mov    %esp,%ebp
 8048316:	83 ec 18             	sub    $0x18,%esp
 8048319:	8b 45 08             	mov    0x8(%ebp),%eax
 804831c:	89 04 24             	mov    %eax,(%esp)
 804831f:	e8 61 2a 00 00       	call   804ad85 <lock_init>
 8048324:	34 01                	xor    $0x1,%al
 8048326:	84 c0                	test   %al,%al
 8048328:	74 0c                	je     8048336 <lock_check_init+0x23>
 804832a:	c7 04 24 01 00 00 00 	movl   $0x1,(%esp)
 8048331:	e8 a5 27 00 00       	call   804aadb <exit>
 8048336:	90                   	nop
 8048337:	c9                   	leave  
 8048338:	c3                   	ret    

08048339 <sema_check_init>:
 8048339:	55                   	push   %ebp
 804833a:	89 e5                	mov    %esp,%ebp
 804833c:	83 ec 18             	sub    $0x18,%esp
 804833f:	8b 45 0c             	mov    0xc(%ebp),%eax
 8048342:	89 44 24 04          	mov    %eax,0x4(%esp)
 8048346:	8b 45 08             	mov    0x8(%ebp),%eax
 8048349:	89 04 24             	mov    %eax,(%esp)
 804834c:	e8 bf 2a 00 00       	call   804ae10 <sema_init>
 8048351:	34 01                	xor    $0x1,%al
 8048353:	84 c0                	test   %al,%al
 8048355:	74 0c                	je     8048363 <sema_check_init+0x2a>
 8048357:	c7 04 24 01 00 00 00 	movl   $0x1,(%esp)
 804835e:	e8 78 27 00 00       	call   804aadb <exit>
 8048363:	90                   	nop
 8048364:	c9                   	leave  
 8048365:	c3                   	ret    

08048366 <pthread_check_join>:
 8048366:	55                   	push   %ebp
 8048367:	89 e5                	mov    %esp,%ebp
 8048369:	83 ec 18             	sub    $0x18,%esp
 804836c:	8b 45 08             	mov    0x8(%ebp),%eax
 804836f:	89 04 24             	mov    %eax,(%esp)
 8048372:	e8 6b 2b 00 00       	call   804aee2 <pthread_join>
 8048377:	34 01                	xor    $0x1,%al
 8048379:	84 c0                	test   %al,%al
 804837b:	74 0c                	je     8048389 <pthread_check_join+0x23>
 804837d:	c7 04 24 01 00 00 00 	movl   $0x1,(%esp)
 8048384:	e8 52 27 00 00       	call   804aadb <exit>
 8048389:	90                   	nop
 804838a:	c9                   	leave  
 804838b:	c3                   	ret    

0804838c <pthread_check_create>:
 804838c:	55                   	push   %ebp
 804838d:	89 e5                	mov    %esp,%ebp
 804838f:	83 ec 28             	sub    $0x28,%esp
 8048392:	8b 45 0c             	mov    0xc(%ebp),%eax
 8048395:	89 44 24 04          	mov    %eax,0x4(%esp)
 8048399:	8b 45 08             	mov    0x8(%ebp),%eax
 804839c:	89 04 24             	mov    %eax,(%esp)
 804839f:	e8 11 2b 00 00       	call   804aeb5 <pthread_create>
 80483a4:	89 45 f4             	mov    %eax,-0xc(%ebp)
 80483a7:	83 7d f4 ff          	cmpl   $0xffffffff,-0xc(%ebp)
 80483ab:	75 0c                	jne    80483b9 <pthread_check_create+0x2d>
 80483ad:	c7 04 24 01 00 00 00 	movl   $0x1,(%esp)
 80483b4:	e8 22 27 00 00       	call   804aadb <exit>
 80483b9:	8b 45 f4             	mov    -0xc(%ebp),%eax
 80483bc:	c9                   	leave  
 80483bd:	c3                   	ret    

080483be <shuffle>:
 80483be:	55                   	push   %ebp
 80483bf:	89 e5                	mov    %esp,%ebp
 80483c1:	83 ec 28             	sub    $0x28,%esp
 80483c4:	8b 45 08             	mov    0x8(%ebp),%eax
 80483c7:	89 45 f0             	mov    %eax,-0x10(%ebp)
 80483ca:	c7 45 f4 00 00 00 00 	movl   $0x0,-0xc(%ebp)
 80483d1:	eb 4f                	jmp    8048422 <shuffle+0x64>
 80483d3:	e8 ca 06 00 00       	call   8048aa2 <random_ulong>
 80483d8:	8b 55 0c             	mov    0xc(%ebp),%edx
 80483db:	89 d1                	mov    %edx,%ecx
 80483dd:	2b 4d f4             	sub    -0xc(%ebp),%ecx
 80483e0:	ba 00 00 00 00       	mov    $0x0,%edx
 80483e5:	f7 f1                	div    %ecx
 80483e7:	8b 45 f4             	mov    -0xc(%ebp),%eax
 80483ea:	01 d0                	add    %edx,%eax
 80483ec:	89 45 ec             	mov    %eax,-0x14(%ebp)
 80483ef:	8b 45 ec             	mov    -0x14(%ebp),%eax
 80483f2:	0f af 45 10          	imul   0x10(%ebp),%eax
 80483f6:	89 c2                	mov    %eax,%edx
 80483f8:	8b 45 f0             	mov    -0x10(%ebp),%eax
 80483fb:	8d 0c 02             	lea    (%edx,%eax,1),%ecx
 80483fe:	8b 45 f4             	mov    -0xc(%ebp),%eax
 8048401:	0f af 45 10          	imul   0x10(%ebp),%eax
 8048405:	89 c2                	mov    %eax,%edx
 8048407:	8b 45 f0             	mov    -0x10(%ebp),%eax
 804840a:	01 c2                	add    %eax,%edx
 804840c:	8b 45 10             	mov    0x10(%ebp),%eax
 804840f:	89 44 24 08          	mov    %eax,0x8(%esp)
 8048413:	89 4c 24 04          	mov    %ecx,0x4(%esp)
 8048417:	89 14 24             	mov    %edx,(%esp)
 804841a:	e8 25 fe ff ff       	call   8048244 <swap>
 804841f:	ff 45 f4             	incl   -0xc(%ebp)
 8048422:	8b 45 f4             	mov    -0xc(%ebp),%eax
 8048425:	3b 45 0c             	cmp    0xc(%ebp),%eax
 8048428:	72 a9                	jb     80483d3 <shuffle+0x15>
 804842a:	90                   	nop
 804842b:	c9                   	leave  
 804842c:	c3                   	ret    

0804842d <exec_children>:
 804842d:	55                   	push   %ebp
 804842e:	89 e5                	mov    %esp,%ebp
 8048430:	53                   	push   %ebx
 8048431:	81 ec b4 00 00 00    	sub    $0xb4,%esp
 8048437:	c7 45 f4 00 00 00 00 	movl   $0x0,-0xc(%ebp)
 804843e:	e9 a4 00 00 00       	jmp    80484e7 <exec_children+0xba>
 8048443:	8b 45 f4             	mov    -0xc(%ebp),%eax
 8048446:	89 44 24 10          	mov    %eax,0x10(%esp)
 804844a:	8b 45 08             	mov    0x8(%ebp),%eax
 804844d:	89 44 24 0c          	mov    %eax,0xc(%esp)
 8048451:	c7 44 24 08 52 b1 04 	movl   $0x804b152,0x8(%esp)
 8048458:	08 
 8048459:	c7 44 24 04 80 00 00 	movl   $0x80,0x4(%esp)
 8048460:	00 
 8048461:	8d 85 74 ff ff ff    	lea    -0x8c(%ebp),%eax
 8048467:	89 04 24             	mov    %eax,(%esp)
 804846a:	e8 25 07 00 00       	call   8048b94 <snprintf>
 804846f:	8b 45 f4             	mov    -0xc(%ebp),%eax
 8048472:	8d 50 01             	lea    0x1(%eax),%edx
 8048475:	8d 85 74 ff ff ff    	lea    -0x8c(%ebp),%eax
 804847b:	89 44 24 0c          	mov    %eax,0xc(%esp)
 804847f:	8b 45 10             	mov    0x10(%ebp),%eax
 8048482:	89 44 24 08          	mov    %eax,0x8(%esp)
 8048486:	89 54 24 04          	mov    %edx,0x4(%esp)
 804848a:	c7 04 24 59 b1 04 08 	movl   $0x804b159,(%esp)
 8048491:	e8 18 fd ff ff       	call   80481ae <msg>
 8048496:	8b 45 f4             	mov    -0xc(%ebp),%eax
 8048499:	8d 14 85 00 00 00 00 	lea    0x0(,%eax,4),%edx
 80484a0:	8b 45 0c             	mov    0xc(%ebp),%eax
 80484a3:	8d 1c 02             	lea    (%edx,%eax,1),%ebx
 80484a6:	8d 85 74 ff ff ff    	lea    -0x8c(%ebp),%eax
 80484ac:	89 04 24             	mov    %eax,(%esp)
 80484af:	e8 5e 26 00 00       	call   804ab12 <exec>
 80484b4:	89 03                	mov    %eax,(%ebx)
 80484b6:	8b 03                	mov    (%ebx),%eax
 80484b8:	83 f8 ff             	cmp    $0xffffffff,%eax
 80484bb:	75 27                	jne    80484e4 <exec_children+0xb7>
 80484bd:	8b 45 f4             	mov    -0xc(%ebp),%eax
 80484c0:	8d 50 01             	lea    0x1(%eax),%edx
 80484c3:	8d 85 74 ff ff ff    	lea    -0x8c(%ebp),%eax
 80484c9:	89 44 24 0c          	mov    %eax,0xc(%esp)
 80484cd:	8b 45 10             	mov    0x10(%ebp),%eax
 80484d0:	89 44 24 08          	mov    %eax,0x8(%esp)
 80484d4:	89 54 24 04          	mov    %edx,0x4(%esp)
 80484d8:	c7 04 24 59 b1 04 08 	movl   $0x804b159,(%esp)
 80484df:	e8 2e fd ff ff       	call   8048212 <fail>
 80484e4:	ff 45 f4             	incl   -0xc(%ebp)
 80484e7:	8b 45 f4             	mov    -0xc(%ebp),%eax
 80484ea:	3b 45 10             	cmp    0x10(%ebp),%eax
 80484ed:	0f 82 50 ff ff ff    	jb     8048443 <exec_children+0x16>
 80484f3:	90                   	nop
 80484f4:	81 c4 b4 00 00 00    	add    $0xb4,%esp
 80484fa:	5b                   	pop    %ebx
 80484fb:	5d                   	pop    %ebp
 80484fc:	c3                   	ret    

080484fd <wait_children>:
 80484fd:	55                   	push   %ebp
 80484fe:	89 e5                	mov    %esp,%ebp
 8048500:	83 ec 38             	sub    $0x38,%esp
 8048503:	c7 45 f4 00 00 00 00 	movl   $0x0,-0xc(%ebp)
 804850a:	eb 7d                	jmp    8048589 <wait_children+0x8c>
 804850c:	8b 45 f4             	mov    -0xc(%ebp),%eax
 804850f:	8d 14 85 00 00 00 00 	lea    0x0(,%eax,4),%edx
 8048516:	8b 45 08             	mov    0x8(%ebp),%eax
 8048519:	01 d0                	add    %edx,%eax
 804851b:	8b 00                	mov    (%eax),%eax
 804851d:	89 04 24             	mov    %eax,(%esp)
 8048520:	e8 05 26 00 00       	call   804ab2a <wait>
 8048525:	89 45 f0             	mov    %eax,-0x10(%ebp)
 8048528:	8b 45 f4             	mov    -0xc(%ebp),%eax
 804852b:	8d 50 01             	lea    0x1(%eax),%edx
 804852e:	8b 45 f4             	mov    -0xc(%ebp),%eax
 8048531:	89 44 24 10          	mov    %eax,0x10(%esp)
 8048535:	8b 45 f0             	mov    -0x10(%ebp),%eax
 8048538:	89 44 24 0c          	mov    %eax,0xc(%esp)
 804853c:	8b 45 0c             	mov    0xc(%ebp),%eax
 804853f:	89 44 24 08          	mov    %eax,0x8(%esp)
 8048543:	89 54 24 04          	mov    %edx,0x4(%esp)
 8048547:	c7 04 24 78 b1 04 08 	movl   $0x804b178,(%esp)
 804854e:	e8 5b fc ff ff       	call   80481ae <msg>
 8048553:	8b 45 f4             	mov    -0xc(%ebp),%eax
 8048556:	39 45 f0             	cmp    %eax,-0x10(%ebp)
 8048559:	74 2b                	je     8048586 <wait_children+0x89>
 804855b:	8b 45 f4             	mov    -0xc(%ebp),%eax
 804855e:	8d 50 01             	lea    0x1(%eax),%edx
 8048561:	8b 45 f4             	mov    -0xc(%ebp),%eax
 8048564:	89 44 24 10          	mov    %eax,0x10(%esp)
 8048568:	8b 45 f0             	mov    -0x10(%ebp),%eax
 804856b:	89 44 24 0c          	mov    %eax,0xc(%esp)
 804856f:	8b 45 0c             	mov    0xc(%ebp),%eax
 8048572:	89 44 24 08          	mov    %eax,0x8(%esp)
 8048576:	89 54 24 04          	mov    %edx,0x4(%esp)
 804857a:	c7 04 24 78 b1 04 08 	movl   $0x804b178,(%esp)
 8048581:	e8 8c fc ff ff       	call   8048212 <fail>
 8048586:	ff 45 f4             	incl   -0xc(%ebp)
 8048589:	8b 45 f4             	mov    -0xc(%ebp),%eax
 804858c:	3b 45 0c             	cmp    0xc(%ebp),%eax
 804858f:	0f 82 77 ff ff ff    	jb     804850c <wait_children+0xf>
 8048595:	90                   	nop
 8048596:	c9                   	leave  
 8048597:	c3                   	ret    

08048598 <check_file_handle>:
 8048598:	55                   	push   %ebp
 8048599:	89 e5                	mov    %esp,%ebp
 804859b:	81 ec 48 02 00 00    	sub    $0x248,%esp
 80485a1:	8b 45 10             	mov    0x10(%ebp),%eax
 80485a4:	89 45 ec             	mov    %eax,-0x14(%ebp)
 80485a7:	c7 45 f4 00 00 00 00 	movl   $0x0,-0xc(%ebp)
 80485ae:	8b 45 08             	mov    0x8(%ebp),%eax
 80485b1:	89 04 24             	mov    %eax,(%esp)
 80485b4:	e8 e0 25 00 00       	call   804ab99 <filesize>
 80485b9:	89 45 e8             	mov    %eax,-0x18(%ebp)
 80485bc:	8b 45 e8             	mov    -0x18(%ebp),%eax
 80485bf:	3b 45 14             	cmp    0x14(%ebp),%eax
 80485c2:	0f 84 c3 00 00 00    	je     804868b <check_file_handle+0xf3>
 80485c8:	8b 45 14             	mov    0x14(%ebp),%eax
 80485cb:	89 44 24 0c          	mov    %eax,0xc(%esp)
 80485cf:	8b 45 e8             	mov    -0x18(%ebp),%eax
 80485d2:	89 44 24 08          	mov    %eax,0x8(%esp)
 80485d6:	8b 45 0c             	mov    0xc(%ebp),%eax
 80485d9:	89 44 24 04          	mov    %eax,0x4(%esp)
 80485dd:	c7 04 24 b0 b1 04 08 	movl   $0x804b1b0,(%esp)
 80485e4:	e8 c5 fb ff ff       	call   80481ae <msg>
 80485e9:	e9 9d 00 00 00       	jmp    804868b <check_file_handle+0xf3>
 80485ee:	8b 45 14             	mov    0x14(%ebp),%eax
 80485f1:	2b 45 f4             	sub    -0xc(%ebp),%eax
 80485f4:	89 45 f0             	mov    %eax,-0x10(%ebp)
 80485f7:	81 7d f0 00 02 00 00 	cmpl   $0x200,-0x10(%ebp)
 80485fe:	76 07                	jbe    8048607 <check_file_handle+0x6f>
 8048600:	c7 45 f0 00 02 00 00 	movl   $0x200,-0x10(%ebp)
 8048607:	8b 45 f0             	mov    -0x10(%ebp),%eax
 804860a:	89 44 24 08          	mov    %eax,0x8(%esp)
 804860e:	8d 85 e4 fd ff ff    	lea    -0x21c(%ebp),%eax
 8048614:	89 44 24 04          	mov    %eax,0x4(%esp)
 8048618:	8b 45 08             	mov    0x8(%ebp),%eax
 804861b:	89 04 24             	mov    %eax,(%esp)
 804861e:	e8 8e 25 00 00       	call   804abb1 <read>
 8048623:	89 45 e4             	mov    %eax,-0x1c(%ebp)
 8048626:	8b 45 e4             	mov    -0x1c(%ebp),%eax
 8048629:	3b 45 f0             	cmp    -0x10(%ebp),%eax
 804862c:	74 28                	je     8048656 <check_file_handle+0xbe>
 804862e:	8b 45 e4             	mov    -0x1c(%ebp),%eax
 8048631:	89 44 24 10          	mov    %eax,0x10(%esp)
 8048635:	8b 45 0c             	mov    0xc(%ebp),%eax
 8048638:	89 44 24 0c          	mov    %eax,0xc(%esp)
 804863c:	8b 45 f4             	mov    -0xc(%ebp),%eax
 804863f:	89 44 24 08          	mov    %eax,0x8(%esp)
 8048643:	8b 45 f0             	mov    -0x10(%ebp),%eax
 8048646:	89 44 24 04          	mov    %eax,0x4(%esp)
 804864a:	c7 04 24 e0 b1 04 08 	movl   $0x804b1e0,(%esp)
 8048651:	e8 bc fb ff ff       	call   8048212 <fail>
 8048656:	8b 55 ec             	mov    -0x14(%ebp),%edx
 8048659:	8b 45 f4             	mov    -0xc(%ebp),%eax
 804865c:	01 c2                	add    %eax,%edx
 804865e:	8b 45 0c             	mov    0xc(%ebp),%eax
 8048661:	89 44 24 10          	mov    %eax,0x10(%esp)
 8048665:	8b 45 f4             	mov    -0xc(%ebp),%eax
 8048668:	89 44 24 0c          	mov    %eax,0xc(%esp)
 804866c:	8b 45 f0             	mov    -0x10(%ebp),%eax
 804866f:	89 44 24 08          	mov    %eax,0x8(%esp)
 8048673:	89 54 24 04          	mov    %edx,0x4(%esp)
 8048677:	8d 85 e4 fd ff ff    	lea    -0x21c(%ebp),%eax
 804867d:	89 04 24             	mov    %eax,(%esp)
 8048680:	e8 d2 00 00 00       	call   8048757 <compare_bytes>
 8048685:	8b 45 f0             	mov    -0x10(%ebp),%eax
 8048688:	01 45 f4             	add    %eax,-0xc(%ebp)
 804868b:	8b 45 f4             	mov    -0xc(%ebp),%eax
 804868e:	3b 45 14             	cmp    0x14(%ebp),%eax
 8048691:	0f 82 57 ff ff ff    	jb     80485ee <check_file_handle+0x56>
 8048697:	8b 45 e8             	mov    -0x18(%ebp),%eax
 804869a:	3b 45 14             	cmp    0x14(%ebp),%eax
 804869d:	74 21                	je     80486c0 <check_file_handle+0x128>
 804869f:	8b 45 14             	mov    0x14(%ebp),%eax
 80486a2:	89 44 24 0c          	mov    %eax,0xc(%esp)
 80486a6:	8b 45 e8             	mov    -0x18(%ebp),%eax
 80486a9:	89 44 24 08          	mov    %eax,0x8(%esp)
 80486ad:	8b 45 0c             	mov    0xc(%ebp),%eax
 80486b0:	89 44 24 04          	mov    %eax,0x4(%esp)
 80486b4:	c7 04 24 b0 b1 04 08 	movl   $0x804b1b0,(%esp)
 80486bb:	e8 52 fb ff ff       	call   8048212 <fail>
 80486c0:	8b 45 0c             	mov    0xc(%ebp),%eax
 80486c3:	89 44 24 04          	mov    %eax,0x4(%esp)
 80486c7:	c7 04 24 15 b2 04 08 	movl   $0x804b215,(%esp)
 80486ce:	e8 db fa ff ff       	call   80481ae <msg>
 80486d3:	90                   	nop
 80486d4:	c9                   	leave  
 80486d5:	c3                   	ret    

080486d6 <check_file>:
 80486d6:	55                   	push   %ebp
 80486d7:	89 e5                	mov    %esp,%ebp
 80486d9:	83 ec 28             	sub    $0x28,%esp
 80486dc:	8b 45 08             	mov    0x8(%ebp),%eax
 80486df:	89 44 24 04          	mov    %eax,0x4(%esp)
 80486e3:	c7 04 24 2f b2 04 08 	movl   $0x804b22f,(%esp)
 80486ea:	e8 bf fa ff ff       	call   80481ae <msg>
 80486ef:	8b 45 08             	mov    0x8(%ebp),%eax
 80486f2:	89 04 24             	mov    %eax,(%esp)
 80486f5:	e8 87 24 00 00       	call   804ab81 <open>
 80486fa:	89 45 f4             	mov    %eax,-0xc(%ebp)
 80486fd:	83 7d f4 01          	cmpl   $0x1,-0xc(%ebp)
 8048701:	7f 13                	jg     8048716 <check_file+0x40>
 8048703:	8b 45 08             	mov    0x8(%ebp),%eax
 8048706:	89 44 24 04          	mov    %eax,0x4(%esp)
 804870a:	c7 04 24 2f b2 04 08 	movl   $0x804b22f,(%esp)
 8048711:	e8 fc fa ff ff       	call   8048212 <fail>
 8048716:	8b 45 10             	mov    0x10(%ebp),%eax
 8048719:	89 44 24 0c          	mov    %eax,0xc(%esp)
 804871d:	8b 45 0c             	mov    0xc(%ebp),%eax
 8048720:	89 44 24 08          	mov    %eax,0x8(%esp)
 8048724:	8b 45 08             	mov    0x8(%ebp),%eax
 8048727:	89 44 24 04          	mov    %eax,0x4(%esp)
 804872b:	8b 45 f4             	mov    -0xc(%ebp),%eax
 804872e:	89 04 24             	mov    %eax,(%esp)
 8048731:	e8 62 fe ff ff       	call   8048598 <check_file_handle>
 8048736:	8b 45 08             	mov    0x8(%ebp),%eax
 8048739:	89 44 24 04          	mov    %eax,0x4(%esp)
 804873d:	c7 04 24 4a b2 04 08 	movl   $0x804b24a,(%esp)
 8048744:	e8 65 fa ff ff       	call   80481ae <msg>
 8048749:	8b 45 f4             	mov    -0xc(%ebp),%eax
 804874c:	89 04 24             	mov    %eax,(%esp)
 804874f:	e8 d2 24 00 00       	call   804ac26 <close>
 8048754:	90                   	nop
 8048755:	c9                   	leave  
 8048756:	c3                   	ret    

08048757 <compare_bytes>:
 8048757:	55                   	push   %ebp
 8048758:	89 e5                	mov    %esp,%ebp
 804875a:	83 ec 38             	sub    $0x38,%esp
 804875d:	8b 45 08             	mov    0x8(%ebp),%eax
 8048760:	89 45 e8             	mov    %eax,-0x18(%ebp)
 8048763:	8b 45 0c             	mov    0xc(%ebp),%eax
 8048766:	89 45 e4             	mov    %eax,-0x1c(%ebp)
 8048769:	8b 45 10             	mov    0x10(%ebp),%eax
 804876c:	89 44 24 08          	mov    %eax,0x8(%esp)
 8048770:	8b 45 e4             	mov    -0x1c(%ebp),%eax
 8048773:	89 44 24 04          	mov    %eax,0x4(%esp)
 8048777:	8b 45 e8             	mov    -0x18(%ebp),%eax
 804877a:	89 04 24             	mov    %eax,(%esp)
 804877d:	e8 24 16 00 00       	call   8049da6 <memcmp>
 8048782:	85 c0                	test   %eax,%eax
 8048784:	0f 84 5b 01 00 00    	je     80488e5 <compare_bytes+0x18e>
 804878a:	c7 45 f4 00 00 00 00 	movl   $0x0,-0xc(%ebp)
 8048791:	eb 1d                	jmp    80487b0 <compare_bytes+0x59>
 8048793:	8b 55 e8             	mov    -0x18(%ebp),%edx
 8048796:	8b 45 f4             	mov    -0xc(%ebp),%eax
 8048799:	01 d0                	add    %edx,%eax
 804879b:	0f b6 10             	movzbl (%eax),%edx
 804879e:	8b 4d e4             	mov    -0x1c(%ebp),%ecx
 80487a1:	8b 45 f4             	mov    -0xc(%ebp),%eax
 80487a4:	01 c8                	add    %ecx,%eax
 80487a6:	0f b6 00             	movzbl (%eax),%eax
 80487a9:	38 c2                	cmp    %al,%dl
 80487ab:	75 0d                	jne    80487ba <compare_bytes+0x63>
 80487ad:	ff 45 f4             	incl   -0xc(%ebp)
 80487b0:	8b 45 f4             	mov    -0xc(%ebp),%eax
 80487b3:	3b 45 10             	cmp    0x10(%ebp),%eax
 80487b6:	72 db                	jb     8048793 <compare_bytes+0x3c>
 80487b8:	eb 01                	jmp    80487bb <compare_bytes+0x64>
 80487ba:	90                   	nop
 80487bb:	8b 45 f4             	mov    -0xc(%ebp),%eax
 80487be:	40                   	inc    %eax
 80487bf:	89 45 f0             	mov    %eax,-0x10(%ebp)
 80487c2:	eb 1d                	jmp    80487e1 <compare_bytes+0x8a>
 80487c4:	8b 55 e8             	mov    -0x18(%ebp),%edx
 80487c7:	8b 45 f0             	mov    -0x10(%ebp),%eax
 80487ca:	01 d0                	add    %edx,%eax
 80487cc:	0f b6 10             	movzbl (%eax),%edx
 80487cf:	8b 4d e4             	mov    -0x1c(%ebp),%ecx
 80487d2:	8b 45 f0             	mov    -0x10(%ebp),%eax
 80487d5:	01 c8                	add    %ecx,%eax
 80487d7:	0f b6 00             	movzbl (%eax),%eax
 80487da:	38 c2                	cmp    %al,%dl
 80487dc:	74 0d                	je     80487eb <compare_bytes+0x94>
 80487de:	ff 45 f0             	incl   -0x10(%ebp)
 80487e1:	8b 45 f0             	mov    -0x10(%ebp),%eax
 80487e4:	3b 45 10             	cmp    0x10(%ebp),%eax
 80487e7:	72 db                	jb     80487c4 <compare_bytes+0x6d>
 80487e9:	eb 01                	jmp    80487ec <compare_bytes+0x95>
 80487eb:	90                   	nop
 80487ec:	c6 05 40 c9 04 08 00 	movb   $0x0,0x804c940
 80487f3:	8b 55 14             	mov    0x14(%ebp),%edx
 80487f6:	8b 45 f4             	mov    -0xc(%ebp),%eax
 80487f9:	8d 0c 02             	lea    (%edx,%eax,1),%ecx
 80487fc:	8b 45 f0             	mov    -0x10(%ebp),%eax
 80487ff:	2b 45 f4             	sub    -0xc(%ebp),%eax
 8048802:	8b 55 18             	mov    0x18(%ebp),%edx
 8048805:	89 54 24 0c          	mov    %edx,0xc(%esp)
 8048809:	89 4c 24 08          	mov    %ecx,0x8(%esp)
 804880d:	89 44 24 04          	mov    %eax,0x4(%esp)
 8048811:	c7 04 24 58 b2 04 08 	movl   $0x804b258,(%esp)
 8048818:	e8 91 f9 ff ff       	call   80481ae <msg>
 804881d:	8b 45 f0             	mov    -0x10(%ebp),%eax
 8048820:	2b 45 f4             	sub    -0xc(%ebp),%eax
 8048823:	89 45 ec             	mov    %eax,-0x14(%ebp)
 8048826:	8b 45 f0             	mov    -0x10(%ebp),%eax
 8048829:	2b 45 f4             	sub    -0xc(%ebp),%eax
 804882c:	83 f8 40             	cmp    $0x40,%eax
 804882f:	76 1a                	jbe    804884b <compare_bytes+0xf4>
 8048831:	c7 45 ec 40 00 00 00 	movl   $0x40,-0x14(%ebp)
 8048838:	8b 45 ec             	mov    -0x14(%ebp),%eax
 804883b:	89 44 24 04          	mov    %eax,0x4(%esp)
 804883f:	c7 04 24 9c b2 04 08 	movl   $0x804b29c,(%esp)
 8048846:	e8 63 f9 ff ff       	call   80481ae <msg>
 804884b:	c7 04 24 bf b2 04 08 	movl   $0x804b2bf,(%esp)
 8048852:	e8 57 f9 ff ff       	call   80481ae <msg>
 8048857:	8b 55 e8             	mov    -0x18(%ebp),%edx
 804885a:	8b 45 f4             	mov    -0xc(%ebp),%eax
 804885d:	8d 0c 02             	lea    (%edx,%eax,1),%ecx
 8048860:	8b 55 14             	mov    0x14(%ebp),%edx
 8048863:	8b 45 f4             	mov    -0xc(%ebp),%eax
 8048866:	01 c2                	add    %eax,%edx
 8048868:	c7 44 24 0c 01 00 00 	movl   $0x1,0xc(%esp)
 804886f:	00 
 8048870:	8b 45 ec             	mov    -0x14(%ebp),%eax
 8048873:	89 44 24 08          	mov    %eax,0x8(%esp)
 8048877:	89 4c 24 04          	mov    %ecx,0x4(%esp)
 804887b:	89 14 24             	mov    %edx,(%esp)
 804887e:	e8 1e 11 00 00       	call   80499a1 <hex_dump>
 8048883:	c7 04 24 d3 b2 04 08 	movl   $0x804b2d3,(%esp)
 804888a:	e8 1f f9 ff ff       	call   80481ae <msg>
 804888f:	8b 55 e4             	mov    -0x1c(%ebp),%edx
 8048892:	8b 45 f4             	mov    -0xc(%ebp),%eax
 8048895:	8d 0c 02             	lea    (%edx,%eax,1),%ecx
 8048898:	8b 55 14             	mov    0x14(%ebp),%edx
 804889b:	8b 45 f4             	mov    -0xc(%ebp),%eax
 804889e:	01 c2                	add    %eax,%edx
 80488a0:	c7 44 24 0c 01 00 00 	movl   $0x1,0xc(%esp)
 80488a7:	00 
 80488a8:	8b 45 ec             	mov    -0x14(%ebp),%eax
 80488ab:	89 44 24 08          	mov    %eax,0x8(%esp)
 80488af:	89 4c 24 04          	mov    %ecx,0x4(%esp)
 80488b3:	89 14 24             	mov    %edx,(%esp)
 80488b6:	e8 e6 10 00 00       	call   80499a1 <hex_dump>
 80488bb:	8b 55 14             	mov    0x14(%ebp),%edx
 80488be:	8b 45 f4             	mov    -0xc(%ebp),%eax
 80488c1:	8d 0c 02             	lea    (%edx,%eax,1),%ecx
 80488c4:	8b 45 f0             	mov    -0x10(%ebp),%eax
 80488c7:	2b 45 f4             	sub    -0xc(%ebp),%eax
 80488ca:	8b 55 18             	mov    0x18(%ebp),%edx
 80488cd:	89 54 24 0c          	mov    %edx,0xc(%esp)
 80488d1:	89 4c 24 08          	mov    %ecx,0x8(%esp)
 80488d5:	89 44 24 04          	mov    %eax,0x4(%esp)
 80488d9:	c7 04 24 e4 b2 04 08 	movl   $0x804b2e4,(%esp)
 80488e0:	e8 2d f9 ff ff       	call   8048212 <fail>
 80488e5:	90                   	nop
 80488e6:	c9                   	leave  
 80488e7:	c3                   	ret    

080488e8 <_start>:
 80488e8:	55                   	push   %ebp
 80488e9:	89 e5                	mov    %esp,%ebp
 80488eb:	83 ec 18             	sub    $0x18,%esp
 80488ee:	8b 45 0c             	mov    0xc(%ebp),%eax
 80488f1:	89 44 24 04          	mov    %eax,0x4(%esp)
 80488f5:	8b 45 08             	mov    0x8(%ebp),%eax
 80488f8:	89 04 24             	mov    %eax,(%esp)
 80488fb:	e8 94 f7 ff ff       	call   8048094 <main>
 8048900:	89 04 24             	mov    %eax,(%esp)
 8048903:	e8 d3 21 00 00       	call   804aadb <exit>

08048908 <swap_byte>:
 8048908:	55                   	push   %ebp
 8048909:	89 e5                	mov    %esp,%ebp
 804890b:	83 ec 10             	sub    $0x10,%esp
 804890e:	8b 45 08             	mov    0x8(%ebp),%eax
 8048911:	0f b6 00             	movzbl (%eax),%eax
 8048914:	88 45 ff             	mov    %al,-0x1(%ebp)
 8048917:	8b 45 0c             	mov    0xc(%ebp),%eax
 804891a:	0f b6 10             	movzbl (%eax),%edx
 804891d:	8b 45 08             	mov    0x8(%ebp),%eax
 8048920:	88 10                	mov    %dl,(%eax)
 8048922:	8b 45 0c             	mov    0xc(%ebp),%eax
 8048925:	0f b6 55 ff          	movzbl -0x1(%ebp),%edx
 8048929:	88 10                	mov    %dl,(%eax)
 804892b:	90                   	nop
 804892c:	c9                   	leave  
 804892d:	c3                   	ret    

0804892e <random_init>:
 804892e:	55                   	push   %ebp
 804892f:	89 e5                	mov    %esp,%ebp
 8048931:	83 ec 18             	sub    $0x18,%esp
 8048934:	8d 45 08             	lea    0x8(%ebp),%eax
 8048937:	89 45 f4             	mov    %eax,-0xc(%ebp)
 804893a:	c7 45 fc 00 00 00 00 	movl   $0x0,-0x4(%ebp)
 8048941:	eb 12                	jmp    8048955 <random_init+0x27>
 8048943:	8b 45 fc             	mov    -0x4(%ebp),%eax
 8048946:	88 c2                	mov    %al,%dl
 8048948:	8b 45 fc             	mov    -0x4(%ebp),%eax
 804894b:	05 60 cd 04 08       	add    $0x804cd60,%eax
 8048950:	88 10                	mov    %dl,(%eax)
 8048952:	ff 45 fc             	incl   -0x4(%ebp)
 8048955:	81 7d fc ff 00 00 00 	cmpl   $0xff,-0x4(%ebp)
 804895c:	7e e5                	jle    8048943 <random_init+0x15>
 804895e:	c6 45 fb 00          	movb   $0x0,-0x5(%ebp)
 8048962:	c7 45 fc 00 00 00 00 	movl   $0x0,-0x4(%ebp)
 8048969:	eb 41                	jmp    80489ac <random_init+0x7e>
 804896b:	8b 45 fc             	mov    -0x4(%ebp),%eax
 804896e:	05 60 cd 04 08       	add    $0x804cd60,%eax
 8048973:	0f b6 10             	movzbl (%eax),%edx
 8048976:	8b 45 fc             	mov    -0x4(%ebp),%eax
 8048979:	83 e0 03             	and    $0x3,%eax
 804897c:	89 c1                	mov    %eax,%ecx
 804897e:	8b 45 f4             	mov    -0xc(%ebp),%eax
 8048981:	01 c8                	add    %ecx,%eax
 8048983:	0f b6 00             	movzbl (%eax),%eax
 8048986:	00 d0                	add    %dl,%al
 8048988:	00 45 fb             	add    %al,-0x5(%ebp)
 804898b:	0f b6 45 fb          	movzbl -0x5(%ebp),%eax
 804898f:	8d 90 60 cd 04 08    	lea    0x804cd60(%eax),%edx
 8048995:	8b 45 fc             	mov    -0x4(%ebp),%eax
 8048998:	05 60 cd 04 08       	add    $0x804cd60,%eax
 804899d:	89 54 24 04          	mov    %edx,0x4(%esp)
 80489a1:	89 04 24             	mov    %eax,(%esp)
 80489a4:	e8 5f ff ff ff       	call   8048908 <swap_byte>
 80489a9:	ff 45 fc             	incl   -0x4(%ebp)
 80489ac:	81 7d fc ff 00 00 00 	cmpl   $0xff,-0x4(%ebp)
 80489b3:	7e b6                	jle    804896b <random_init+0x3d>
 80489b5:	c6 05 61 ce 04 08 00 	movb   $0x0,0x804ce61
 80489bc:	0f b6 05 61 ce 04 08 	movzbl 0x804ce61,%eax
 80489c3:	a2 60 ce 04 08       	mov    %al,0x804ce60
 80489c8:	c6 05 62 ce 04 08 01 	movb   $0x1,0x804ce62
 80489cf:	90                   	nop
 80489d0:	c9                   	leave  
 80489d1:	c3                   	ret    

080489d2 <random_bytes>:
 80489d2:	55                   	push   %ebp
 80489d3:	89 e5                	mov    %esp,%ebp
 80489d5:	83 ec 18             	sub    $0x18,%esp
 80489d8:	0f b6 05 62 ce 04 08 	movzbl 0x804ce62,%eax
 80489df:	34 01                	xor    $0x1,%al
 80489e1:	84 c0                	test   %al,%al
 80489e3:	74 0c                	je     80489f1 <random_bytes+0x1f>
 80489e5:	c7 04 24 00 00 00 00 	movl   $0x0,(%esp)
 80489ec:	e8 3d ff ff ff       	call   804892e <random_init>
 80489f1:	8b 45 08             	mov    0x8(%ebp),%eax
 80489f4:	89 45 fc             	mov    %eax,-0x4(%ebp)
 80489f7:	e9 92 00 00 00       	jmp    8048a8e <random_bytes+0xbc>
 80489fc:	0f b6 05 60 ce 04 08 	movzbl 0x804ce60,%eax
 8048a03:	fe c0                	inc    %al
 8048a05:	a2 60 ce 04 08       	mov    %al,0x804ce60
 8048a0a:	0f b6 05 60 ce 04 08 	movzbl 0x804ce60,%eax
 8048a11:	0f b6 c0             	movzbl %al,%eax
 8048a14:	0f b6 90 60 cd 04 08 	movzbl 0x804cd60(%eax),%edx
 8048a1b:	0f b6 05 61 ce 04 08 	movzbl 0x804ce61,%eax
 8048a22:	00 d0                	add    %dl,%al
 8048a24:	a2 61 ce 04 08       	mov    %al,0x804ce61
 8048a29:	0f b6 05 61 ce 04 08 	movzbl 0x804ce61,%eax
 8048a30:	0f b6 c0             	movzbl %al,%eax
 8048a33:	8d 90 60 cd 04 08    	lea    0x804cd60(%eax),%edx
 8048a39:	0f b6 05 60 ce 04 08 	movzbl 0x804ce60,%eax
 8048a40:	0f b6 c0             	movzbl %al,%eax
 8048a43:	05 60 cd 04 08       	add    $0x804cd60,%eax
 8048a48:	89 54 24 04          	mov    %edx,0x4(%esp)
 8048a4c:	89 04 24             	mov    %eax,(%esp)
 8048a4f:	e8 b4 fe ff ff       	call   8048908 <swap_byte>
 8048a54:	0f b6 05 60 ce 04 08 	movzbl 0x804ce60,%eax
 8048a5b:	0f b6 c0             	movzbl %al,%eax
 8048a5e:	0f b6 90 60 cd 04 08 	movzbl 0x804cd60(%eax),%edx
 8048a65:	0f b6 05 61 ce 04 08 	movzbl 0x804ce61,%eax
 8048a6c:	0f b6 c0             	movzbl %al,%eax
 8048a6f:	0f b6 80 60 cd 04 08 	movzbl 0x804cd60(%eax),%eax
 8048a76:	00 d0                	add    %dl,%al
 8048a78:	88 45 fb             	mov    %al,-0x5(%ebp)
 8048a7b:	0f b6 45 fb          	movzbl -0x5(%ebp),%eax
 8048a7f:	0f b6 90 60 cd 04 08 	movzbl 0x804cd60(%eax),%edx
 8048a86:	8b 45 fc             	mov    -0x4(%ebp),%eax
 8048a89:	88 10                	mov    %dl,(%eax)
 8048a8b:	ff 45 fc             	incl   -0x4(%ebp)
 8048a8e:	8b 45 0c             	mov    0xc(%ebp),%eax
 8048a91:	8d 50 ff             	lea    -0x1(%eax),%edx
 8048a94:	89 55 0c             	mov    %edx,0xc(%ebp)
 8048a97:	85 c0                	test   %eax,%eax
 8048a99:	0f 85 5d ff ff ff    	jne    80489fc <random_bytes+0x2a>
 8048a9f:	90                   	nop
 8048aa0:	c9                   	leave  
 8048aa1:	c3                   	ret    

08048aa2 <random_ulong>:
 8048aa2:	55                   	push   %ebp
 8048aa3:	89 e5                	mov    %esp,%ebp
 8048aa5:	83 ec 18             	sub    $0x18,%esp
 8048aa8:	c7 44 24 04 04 00 00 	movl   $0x4,0x4(%esp)
 8048aaf:	00 
 8048ab0:	8d 45 fc             	lea    -0x4(%ebp),%eax
 8048ab3:	89 04 24             	mov    %eax,(%esp)
 8048ab6:	e8 17 ff ff ff       	call   80489d2 <random_bytes>
 8048abb:	8b 45 fc             	mov    -0x4(%ebp),%eax
 8048abe:	c9                   	leave  
 8048abf:	c3                   	ret    

08048ac0 <isdigit>:
 8048ac0:	55                   	push   %ebp
 8048ac1:	89 e5                	mov    %esp,%ebp
 8048ac3:	83 7d 08 2f          	cmpl   $0x2f,0x8(%ebp)
 8048ac7:	7e 0d                	jle    8048ad6 <isdigit+0x16>
 8048ac9:	83 7d 08 39          	cmpl   $0x39,0x8(%ebp)
 8048acd:	7f 07                	jg     8048ad6 <isdigit+0x16>
 8048acf:	b8 01 00 00 00       	mov    $0x1,%eax
 8048ad4:	eb 05                	jmp    8048adb <isdigit+0x1b>
 8048ad6:	b8 00 00 00 00       	mov    $0x0,%eax
 8048adb:	5d                   	pop    %ebp
 8048adc:	c3                   	ret    

08048add <isprint>:
 8048add:	55                   	push   %ebp
 8048ade:	89 e5                	mov    %esp,%ebp
 8048ae0:	83 7d 08 1f          	cmpl   $0x1f,0x8(%ebp)
 8048ae4:	7e 0d                	jle    8048af3 <isprint+0x16>
 8048ae6:	83 7d 08 7e          	cmpl   $0x7e,0x8(%ebp)
 8048aea:	7f 07                	jg     8048af3 <isprint+0x16>
 8048aec:	b8 01 00 00 00       	mov    $0x1,%eax
 8048af1:	eb 05                	jmp    8048af8 <isprint+0x1b>
 8048af3:	b8 00 00 00 00       	mov    $0x0,%eax
 8048af8:	5d                   	pop    %ebp
 8048af9:	c3                   	ret    

08048afa <vsnprintf>:
 8048afa:	55                   	push   %ebp
 8048afb:	89 e5                	mov    %esp,%ebp
 8048afd:	83 ec 28             	sub    $0x28,%esp
 8048b00:	8b 45 08             	mov    0x8(%ebp),%eax
 8048b03:	89 45 ec             	mov    %eax,-0x14(%ebp)
 8048b06:	c7 45 f0 00 00 00 00 	movl   $0x0,-0x10(%ebp)
 8048b0d:	83 7d 0c 00          	cmpl   $0x0,0xc(%ebp)
 8048b11:	74 06                	je     8048b19 <vsnprintf+0x1f>
 8048b13:	8b 45 0c             	mov    0xc(%ebp),%eax
 8048b16:	48                   	dec    %eax
 8048b17:	eb 05                	jmp    8048b1e <vsnprintf+0x24>
 8048b19:	b8 00 00 00 00       	mov    $0x0,%eax
 8048b1e:	89 45 f4             	mov    %eax,-0xc(%ebp)
 8048b21:	8d 45 ec             	lea    -0x14(%ebp),%eax
 8048b24:	89 44 24 0c          	mov    %eax,0xc(%esp)
 8048b28:	c7 44 24 08 53 8b 04 	movl   $0x8048b53,0x8(%esp)
 8048b2f:	08 
 8048b30:	8b 45 14             	mov    0x14(%ebp),%eax
 8048b33:	89 44 24 04          	mov    %eax,0x4(%esp)
 8048b37:	8b 45 10             	mov    0x10(%ebp),%eax
 8048b3a:	89 04 24             	mov    %eax,(%esp)
 8048b3d:	e8 ac 00 00 00       	call   8048bee <__vprintf>
 8048b42:	83 7d 0c 00          	cmpl   $0x0,0xc(%ebp)
 8048b46:	74 06                	je     8048b4e <vsnprintf+0x54>
 8048b48:	8b 45 ec             	mov    -0x14(%ebp),%eax
 8048b4b:	c6 00 00             	movb   $0x0,(%eax)
 8048b4e:	8b 45 f0             	mov    -0x10(%ebp),%eax
 8048b51:	c9                   	leave  
 8048b52:	c3                   	ret    

08048b53 <vsnprintf_helper>:
 8048b53:	55                   	push   %ebp
 8048b54:	89 e5                	mov    %esp,%ebp
 8048b56:	83 ec 14             	sub    $0x14,%esp
 8048b59:	8b 45 08             	mov    0x8(%ebp),%eax
 8048b5c:	88 45 ec             	mov    %al,-0x14(%ebp)
 8048b5f:	8b 45 0c             	mov    0xc(%ebp),%eax
 8048b62:	89 45 fc             	mov    %eax,-0x4(%ebp)
 8048b65:	8b 45 fc             	mov    -0x4(%ebp),%eax
 8048b68:	8b 40 04             	mov    0x4(%eax),%eax
 8048b6b:	8d 48 01             	lea    0x1(%eax),%ecx
 8048b6e:	8b 55 fc             	mov    -0x4(%ebp),%edx
 8048b71:	89 4a 04             	mov    %ecx,0x4(%edx)
 8048b74:	8b 55 fc             	mov    -0x4(%ebp),%edx
 8048b77:	8b 52 08             	mov    0x8(%edx),%edx
 8048b7a:	39 d0                	cmp    %edx,%eax
 8048b7c:	7d 13                	jge    8048b91 <vsnprintf_helper+0x3e>
 8048b7e:	8b 45 fc             	mov    -0x4(%ebp),%eax
 8048b81:	8b 00                	mov    (%eax),%eax
 8048b83:	8d 48 01             	lea    0x1(%eax),%ecx
 8048b86:	8b 55 fc             	mov    -0x4(%ebp),%edx
 8048b89:	89 0a                	mov    %ecx,(%edx)
 8048b8b:	0f b6 55 ec          	movzbl -0x14(%ebp),%edx
 8048b8f:	88 10                	mov    %dl,(%eax)
 8048b91:	90                   	nop
 8048b92:	c9                   	leave  
 8048b93:	c3                   	ret    

08048b94 <snprintf>:
 8048b94:	55                   	push   %ebp
 8048b95:	89 e5                	mov    %esp,%ebp
 8048b97:	83 ec 28             	sub    $0x28,%esp
 8048b9a:	8d 45 14             	lea    0x14(%ebp),%eax
 8048b9d:	89 45 f0             	mov    %eax,-0x10(%ebp)
 8048ba0:	8b 45 f0             	mov    -0x10(%ebp),%eax
 8048ba3:	89 44 24 0c          	mov    %eax,0xc(%esp)
 8048ba7:	8b 45 10             	mov    0x10(%ebp),%eax
 8048baa:	89 44 24 08          	mov    %eax,0x8(%esp)
 8048bae:	8b 45 0c             	mov    0xc(%ebp),%eax
 8048bb1:	89 44 24 04          	mov    %eax,0x4(%esp)
 8048bb5:	8b 45 08             	mov    0x8(%ebp),%eax
 8048bb8:	89 04 24             	mov    %eax,(%esp)
 8048bbb:	e8 3a ff ff ff       	call   8048afa <vsnprintf>
 8048bc0:	89 45 f4             	mov    %eax,-0xc(%ebp)
 8048bc3:	8b 45 f4             	mov    -0xc(%ebp),%eax
 8048bc6:	c9                   	leave  
 8048bc7:	c3                   	ret    

08048bc8 <printf>:
 8048bc8:	55                   	push   %ebp
 8048bc9:	89 e5                	mov    %esp,%ebp
 8048bcb:	83 ec 28             	sub    $0x28,%esp
 8048bce:	8d 45 0c             	lea    0xc(%ebp),%eax
 8048bd1:	89 45 f0             	mov    %eax,-0x10(%ebp)
 8048bd4:	8b 45 f0             	mov    -0x10(%ebp),%eax
 8048bd7:	89 44 24 04          	mov    %eax,0x4(%esp)
 8048bdb:	8b 45 08             	mov    0x8(%ebp),%eax
 8048bde:	89 04 24             	mov    %eax,(%esp)
 8048be1:	e8 2b 23 00 00       	call   804af11 <vprintf>
 8048be6:	89 45 f4             	mov    %eax,-0xc(%ebp)
 8048be9:	8b 45 f4             	mov    -0xc(%ebp),%eax
 8048bec:	c9                   	leave  
 8048bed:	c3                   	ret    

08048bee <__vprintf>:
 8048bee:	55                   	push   %ebp
 8048bef:	89 e5                	mov    %esp,%ebp
 8048bf1:	57                   	push   %edi
 8048bf2:	56                   	push   %esi
 8048bf3:	53                   	push   %ebx
 8048bf4:	81 ec 9c 00 00 00    	sub    $0x9c,%esp
 8048bfa:	e9 49 06 00 00       	jmp    8049248 <__vprintf+0x65a>
 8048bff:	8b 45 08             	mov    0x8(%ebp),%eax
 8048c02:	0f b6 00             	movzbl (%eax),%eax
 8048c05:	3c 25                	cmp    $0x25,%al
 8048c07:	74 1d                	je     8048c26 <__vprintf+0x38>
 8048c09:	8b 45 08             	mov    0x8(%ebp),%eax
 8048c0c:	0f b6 00             	movzbl (%eax),%eax
 8048c0f:	0f be c0             	movsbl %al,%eax
 8048c12:	8b 55 14             	mov    0x14(%ebp),%edx
 8048c15:	89 54 24 04          	mov    %edx,0x4(%esp)
 8048c19:	89 04 24             	mov    %eax,(%esp)
 8048c1c:	8b 45 10             	mov    0x10(%ebp),%eax
 8048c1f:	ff d0                	call   *%eax
 8048c21:	e9 1f 06 00 00       	jmp    8049245 <__vprintf+0x657>
 8048c26:	ff 45 08             	incl   0x8(%ebp)
 8048c29:	8b 45 08             	mov    0x8(%ebp),%eax
 8048c2c:	0f b6 00             	movzbl (%eax),%eax
 8048c2f:	3c 25                	cmp    $0x25,%al
 8048c31:	75 18                	jne    8048c4b <__vprintf+0x5d>
 8048c33:	8b 45 14             	mov    0x14(%ebp),%eax
 8048c36:	89 44 24 04          	mov    %eax,0x4(%esp)
 8048c3a:	c7 04 24 25 00 00 00 	movl   $0x25,(%esp)
 8048c41:	8b 45 10             	mov    0x10(%ebp),%eax
 8048c44:	ff d0                	call   *%eax
 8048c46:	e9 fa 05 00 00       	jmp    8049245 <__vprintf+0x657>
 8048c4b:	8d 45 0c             	lea    0xc(%ebp),%eax
 8048c4e:	89 44 24 08          	mov    %eax,0x8(%esp)
 8048c52:	8d 45 98             	lea    -0x68(%ebp),%eax
 8048c55:	89 44 24 04          	mov    %eax,0x4(%esp)
 8048c59:	8b 45 08             	mov    0x8(%ebp),%eax
 8048c5c:	89 04 24             	mov    %eax,(%esp)
 8048c5f:	e8 fe 05 00 00       	call   8049262 <parse_conversion>
 8048c64:	89 45 08             	mov    %eax,0x8(%ebp)
 8048c67:	8b 45 08             	mov    0x8(%ebp),%eax
 8048c6a:	0f b6 00             	movzbl (%eax),%eax
 8048c6d:	0f be c0             	movsbl %al,%eax
 8048c70:	83 e8 45             	sub    $0x45,%eax
 8048c73:	83 f8 33             	cmp    $0x33,%eax
 8048c76:	0f 87 a1 05 00 00    	ja     804921d <__vprintf+0x62f>
 8048c7c:	8b 04 85 88 b4 04 08 	mov    0x804b488(,%eax,4),%eax
 8048c83:	ff e0                	jmp    *%eax
 8048c85:	8b 45 a4             	mov    -0x5c(%ebp),%eax
 8048c88:	83 f8 08             	cmp    $0x8,%eax
 8048c8b:	0f 87 d8 00 00 00    	ja     8048d69 <__vprintf+0x17b>
 8048c91:	8b 04 85 58 b5 04 08 	mov    0x804b558(,%eax,4),%eax
 8048c98:	ff e0                	jmp    *%eax
 8048c9a:	8b 45 0c             	mov    0xc(%ebp),%eax
 8048c9d:	8d 50 04             	lea    0x4(%eax),%edx
 8048ca0:	89 55 0c             	mov    %edx,0xc(%ebp)
 8048ca3:	8b 00                	mov    (%eax),%eax
 8048ca5:	0f be c0             	movsbl %al,%eax
 8048ca8:	99                   	cltd   
 8048ca9:	89 45 e0             	mov    %eax,-0x20(%ebp)
 8048cac:	89 55 e4             	mov    %edx,-0x1c(%ebp)
 8048caf:	e9 da 00 00 00       	jmp    8048d8e <__vprintf+0x1a0>
 8048cb4:	8b 45 0c             	mov    0xc(%ebp),%eax
 8048cb7:	8d 50 04             	lea    0x4(%eax),%edx
 8048cba:	89 55 0c             	mov    %edx,0xc(%ebp)
 8048cbd:	8b 00                	mov    (%eax),%eax
 8048cbf:	98                   	cwtl   
 8048cc0:	99                   	cltd   
 8048cc1:	89 45 e0             	mov    %eax,-0x20(%ebp)
 8048cc4:	89 55 e4             	mov    %edx,-0x1c(%ebp)
 8048cc7:	e9 c2 00 00 00       	jmp    8048d8e <__vprintf+0x1a0>
 8048ccc:	8b 45 0c             	mov    0xc(%ebp),%eax
 8048ccf:	8d 50 04             	lea    0x4(%eax),%edx
 8048cd2:	89 55 0c             	mov    %edx,0xc(%ebp)
 8048cd5:	8b 00                	mov    (%eax),%eax
 8048cd7:	99                   	cltd   
 8048cd8:	89 45 e0             	mov    %eax,-0x20(%ebp)
 8048cdb:	89 55 e4             	mov    %edx,-0x1c(%ebp)
 8048cde:	e9 ab 00 00 00       	jmp    8048d8e <__vprintf+0x1a0>
 8048ce3:	8b 45 0c             	mov    0xc(%ebp),%eax
 8048ce6:	8d 50 08             	lea    0x8(%eax),%edx
 8048ce9:	89 55 0c             	mov    %edx,0xc(%ebp)
 8048cec:	8b 50 04             	mov    0x4(%eax),%edx
 8048cef:	8b 00                	mov    (%eax),%eax
 8048cf1:	89 45 e0             	mov    %eax,-0x20(%ebp)
 8048cf4:	89 55 e4             	mov    %edx,-0x1c(%ebp)
 8048cf7:	e9 92 00 00 00       	jmp    8048d8e <__vprintf+0x1a0>
 8048cfc:	8b 45 0c             	mov    0xc(%ebp),%eax
 8048cff:	8d 50 04             	lea    0x4(%eax),%edx
 8048d02:	89 55 0c             	mov    %edx,0xc(%ebp)
 8048d05:	8b 00                	mov    (%eax),%eax
 8048d07:	99                   	cltd   
 8048d08:	89 45 e0             	mov    %eax,-0x20(%ebp)
 8048d0b:	89 55 e4             	mov    %edx,-0x1c(%ebp)
 8048d0e:	eb 7e                	jmp    8048d8e <__vprintf+0x1a0>
 8048d10:	8b 45 0c             	mov    0xc(%ebp),%eax
 8048d13:	8d 50 08             	lea    0x8(%eax),%edx
 8048d16:	89 55 0c             	mov    %edx,0xc(%ebp)
 8048d19:	8b 50 04             	mov    0x4(%eax),%edx
 8048d1c:	8b 00                	mov    (%eax),%eax
 8048d1e:	89 45 e0             	mov    %eax,-0x20(%ebp)
 8048d21:	89 55 e4             	mov    %edx,-0x1c(%ebp)
 8048d24:	eb 68                	jmp    8048d8e <__vprintf+0x1a0>
 8048d26:	8b 45 0c             	mov    0xc(%ebp),%eax
 8048d29:	8d 50 04             	lea    0x4(%eax),%edx
 8048d2c:	89 55 0c             	mov    %edx,0xc(%ebp)
 8048d2f:	8b 00                	mov    (%eax),%eax
 8048d31:	99                   	cltd   
 8048d32:	89 45 e0             	mov    %eax,-0x20(%ebp)
 8048d35:	89 55 e4             	mov    %edx,-0x1c(%ebp)
 8048d38:	eb 54                	jmp    8048d8e <__vprintf+0x1a0>
 8048d3a:	8b 45 0c             	mov    0xc(%ebp),%eax
 8048d3d:	8d 50 04             	lea    0x4(%eax),%edx
 8048d40:	89 55 0c             	mov    %edx,0xc(%ebp)
 8048d43:	8b 00                	mov    (%eax),%eax
 8048d45:	89 45 e0             	mov    %eax,-0x20(%ebp)
 8048d48:	c7 45 e4 00 00 00 00 	movl   $0x0,-0x1c(%ebp)
 8048d4f:	83 7d e4 00          	cmpl   $0x0,-0x1c(%ebp)
 8048d53:	78 38                	js     8048d8d <__vprintf+0x19f>
 8048d55:	83 7d e4 00          	cmpl   $0x0,-0x1c(%ebp)
 8048d59:	7f 09                	jg     8048d64 <__vprintf+0x176>
 8048d5b:	81 7d e0 ff ff ff 7f 	cmpl   $0x7fffffff,-0x20(%ebp)
 8048d62:	76 29                	jbe    8048d8d <__vprintf+0x19f>
 8048d64:	ff 4d e4             	decl   -0x1c(%ebp)
 8048d67:	eb 24                	jmp    8048d8d <__vprintf+0x19f>
 8048d69:	c7 44 24 0c 20 b4 04 	movl   $0x804b420,0xc(%esp)
 8048d70:	08 
 8048d71:	c7 44 24 08 54 b6 04 	movl   $0x804b654,0x8(%esp)
 8048d78:	08 
 8048d79:	c7 44 24 04 c3 00 00 	movl   $0xc3,0x4(%esp)
 8048d80:	00 
 8048d81:	c7 04 24 42 b4 04 08 	movl   $0x804b442,(%esp)
 8048d88:	e8 a6 1c 00 00       	call   804aa33 <debug_panic>
 8048d8d:	90                   	nop
 8048d8e:	8b 45 e4             	mov    -0x1c(%ebp),%eax
 8048d91:	c1 e8 1f             	shr    $0x1f,%eax
 8048d94:	0f b6 c8             	movzbl %al,%ecx
 8048d97:	8b 45 e0             	mov    -0x20(%ebp),%eax
 8048d9a:	8b 55 e4             	mov    -0x1c(%ebp),%edx
 8048d9d:	89 d2                	mov    %edx,%edx
 8048d9f:	c1 fa 1f             	sar    $0x1f,%edx
 8048da2:	89 d0                	mov    %edx,%eax
 8048da4:	89 85 78 ff ff ff    	mov    %eax,-0x88(%ebp)
 8048daa:	89 95 7c ff ff ff    	mov    %edx,-0x84(%ebp)
 8048db0:	33 45 e0             	xor    -0x20(%ebp),%eax
 8048db3:	89 c3                	mov    %eax,%ebx
 8048db5:	8b 85 7c ff ff ff    	mov    -0x84(%ebp),%eax
 8048dbb:	33 45 e4             	xor    -0x1c(%ebp),%eax
 8048dbe:	89 c6                	mov    %eax,%esi
 8048dc0:	2b 9d 78 ff ff ff    	sub    -0x88(%ebp),%ebx
 8048dc6:	1b b5 7c ff ff ff    	sbb    -0x84(%ebp),%esi
 8048dcc:	89 d8                	mov    %ebx,%eax
 8048dce:	89 f2                	mov    %esi,%edx
 8048dd0:	8b 7d 14             	mov    0x14(%ebp),%edi
 8048dd3:	89 7c 24 1c          	mov    %edi,0x1c(%esp)
 8048dd7:	8b 7d 10             	mov    0x10(%ebp),%edi
 8048dda:	89 7c 24 18          	mov    %edi,0x18(%esp)
 8048dde:	8d 7d 98             	lea    -0x68(%ebp),%edi
 8048de1:	89 7c 24 14          	mov    %edi,0x14(%esp)
 8048de5:	c7 44 24 10 54 b3 04 	movl   $0x804b354,0x10(%esp)
 8048dec:	08 
 8048ded:	89 4c 24 0c          	mov    %ecx,0xc(%esp)
 8048df1:	c7 44 24 08 01 00 00 	movl   $0x1,0x8(%esp)
 8048df8:	00 
 8048df9:	89 04 24             	mov    %eax,(%esp)
 8048dfc:	89 54 24 04          	mov    %edx,0x4(%esp)
 8048e00:	e8 1d 07 00 00       	call   8049522 <format_integer>
 8048e05:	e9 3b 04 00 00       	jmp    8049245 <__vprintf+0x657>
 8048e0a:	8b 45 a4             	mov    -0x5c(%ebp),%eax
 8048e0d:	83 f8 08             	cmp    $0x8,%eax
 8048e10:	0f 87 d6 00 00 00    	ja     8048eec <__vprintf+0x2fe>
 8048e16:	8b 04 85 7c b5 04 08 	mov    0x804b57c(,%eax,4),%eax
 8048e1d:	ff e0                	jmp    *%eax
 8048e1f:	8b 45 0c             	mov    0xc(%ebp),%eax
 8048e22:	8d 50 04             	lea    0x4(%eax),%edx
 8048e25:	89 55 0c             	mov    %edx,0xc(%ebp)
 8048e28:	8b 00                	mov    (%eax),%eax
 8048e2a:	0f b6 c0             	movzbl %al,%eax
 8048e2d:	89 45 d8             	mov    %eax,-0x28(%ebp)
 8048e30:	c7 45 dc 00 00 00 00 	movl   $0x0,-0x24(%ebp)
 8048e37:	e9 d4 00 00 00       	jmp    8048f10 <__vprintf+0x322>
 8048e3c:	8b 45 0c             	mov    0xc(%ebp),%eax
 8048e3f:	8d 50 04             	lea    0x4(%eax),%edx
 8048e42:	89 55 0c             	mov    %edx,0xc(%ebp)
 8048e45:	8b 00                	mov    (%eax),%eax
 8048e47:	0f b7 c0             	movzwl %ax,%eax
 8048e4a:	89 45 d8             	mov    %eax,-0x28(%ebp)
 8048e4d:	c7 45 dc 00 00 00 00 	movl   $0x0,-0x24(%ebp)
 8048e54:	e9 b7 00 00 00       	jmp    8048f10 <__vprintf+0x322>
 8048e59:	8b 45 0c             	mov    0xc(%ebp),%eax
 8048e5c:	8d 50 04             	lea    0x4(%eax),%edx
 8048e5f:	89 55 0c             	mov    %edx,0xc(%ebp)
 8048e62:	8b 00                	mov    (%eax),%eax
 8048e64:	89 45 d8             	mov    %eax,-0x28(%ebp)
 8048e67:	c7 45 dc 00 00 00 00 	movl   $0x0,-0x24(%ebp)
 8048e6e:	e9 9d 00 00 00       	jmp    8048f10 <__vprintf+0x322>
 8048e73:	8b 45 0c             	mov    0xc(%ebp),%eax
 8048e76:	8d 50 08             	lea    0x8(%eax),%edx
 8048e79:	89 55 0c             	mov    %edx,0xc(%ebp)
 8048e7c:	8b 50 04             	mov    0x4(%eax),%edx
 8048e7f:	8b 00                	mov    (%eax),%eax
 8048e81:	89 45 d8             	mov    %eax,-0x28(%ebp)
 8048e84:	89 55 dc             	mov    %edx,-0x24(%ebp)
 8048e87:	e9 84 00 00 00       	jmp    8048f10 <__vprintf+0x322>
 8048e8c:	8b 45 0c             	mov    0xc(%ebp),%eax
 8048e8f:	8d 50 04             	lea    0x4(%eax),%edx
 8048e92:	89 55 0c             	mov    %edx,0xc(%ebp)
 8048e95:	8b 00                	mov    (%eax),%eax
 8048e97:	89 45 d8             	mov    %eax,-0x28(%ebp)
 8048e9a:	c7 45 dc 00 00 00 00 	movl   $0x0,-0x24(%ebp)
 8048ea1:	eb 6d                	jmp    8048f10 <__vprintf+0x322>
 8048ea3:	8b 45 0c             	mov    0xc(%ebp),%eax
 8048ea6:	8d 50 08             	lea    0x8(%eax),%edx
 8048ea9:	89 55 0c             	mov    %edx,0xc(%ebp)
 8048eac:	8b 50 04             	mov    0x4(%eax),%edx
 8048eaf:	8b 00                	mov    (%eax),%eax
 8048eb1:	89 45 d8             	mov    %eax,-0x28(%ebp)
 8048eb4:	89 55 dc             	mov    %edx,-0x24(%ebp)
 8048eb7:	eb 57                	jmp    8048f10 <__vprintf+0x322>
 8048eb9:	8b 45 0c             	mov    0xc(%ebp),%eax
 8048ebc:	8d 50 04             	lea    0x4(%eax),%edx
 8048ebf:	89 55 0c             	mov    %edx,0xc(%ebp)
 8048ec2:	8b 00                	mov    (%eax),%eax
 8048ec4:	99                   	cltd   
 8048ec5:	89 45 d8             	mov    %eax,-0x28(%ebp)
 8048ec8:	89 55 dc             	mov    %edx,-0x24(%ebp)
 8048ecb:	83 65 d8 ff          	andl   $0xffffffff,-0x28(%ebp)
 8048ecf:	83 65 dc 00          	andl   $0x0,-0x24(%ebp)
 8048ed3:	eb 3b                	jmp    8048f10 <__vprintf+0x322>
 8048ed5:	8b 45 0c             	mov    0xc(%ebp),%eax
 8048ed8:	8d 50 04             	lea    0x4(%eax),%edx
 8048edb:	89 55 0c             	mov    %edx,0xc(%ebp)
 8048ede:	8b 00                	mov    (%eax),%eax
 8048ee0:	89 45 d8             	mov    %eax,-0x28(%ebp)
 8048ee3:	c7 45 dc 00 00 00 00 	movl   $0x0,-0x24(%ebp)
 8048eea:	eb 24                	jmp    8048f10 <__vprintf+0x322>
 8048eec:	c7 44 24 0c 20 b4 04 	movl   $0x804b420,0xc(%esp)
 8048ef3:	08 
 8048ef4:	c7 44 24 08 54 b6 04 	movl   $0x804b654,0x8(%esp)
 8048efb:	08 
 8048efc:	c7 44 24 04 ee 00 00 	movl   $0xee,0x4(%esp)
 8048f03:	00 
 8048f04:	c7 04 24 42 b4 04 08 	movl   $0x804b442,(%esp)
 8048f0b:	e8 23 1b 00 00       	call   804aa33 <debug_panic>
 8048f10:	8b 45 08             	mov    0x8(%ebp),%eax
 8048f13:	0f b6 00             	movzbl (%eax),%eax
 8048f16:	0f be c0             	movsbl %al,%eax
 8048f19:	83 f8 6f             	cmp    $0x6f,%eax
 8048f1c:	74 18                	je     8048f36 <__vprintf+0x348>
 8048f1e:	83 f8 6f             	cmp    $0x6f,%eax
 8048f21:	7f 07                	jg     8048f2a <__vprintf+0x33c>
 8048f23:	83 f8 58             	cmp    $0x58,%eax
 8048f26:	74 29                	je     8048f51 <__vprintf+0x363>
 8048f28:	eb 30                	jmp    8048f5a <__vprintf+0x36c>
 8048f2a:	83 f8 75             	cmp    $0x75,%eax
 8048f2d:	74 10                	je     8048f3f <__vprintf+0x351>
 8048f2f:	83 f8 78             	cmp    $0x78,%eax
 8048f32:	74 14                	je     8048f48 <__vprintf+0x35a>
 8048f34:	eb 24                	jmp    8048f5a <__vprintf+0x36c>
 8048f36:	c7 45 d4 70 b3 04 08 	movl   $0x804b370,-0x2c(%ebp)
 8048f3d:	eb 3f                	jmp    8048f7e <__vprintf+0x390>
 8048f3f:	c7 45 d4 54 b3 04 08 	movl   $0x804b354,-0x2c(%ebp)
 8048f46:	eb 36                	jmp    8048f7e <__vprintf+0x390>
 8048f48:	c7 45 d4 94 b3 04 08 	movl   $0x804b394,-0x2c(%ebp)
 8048f4f:	eb 2d                	jmp    8048f7e <__vprintf+0x390>
 8048f51:	c7 45 d4 b8 b3 04 08 	movl   $0x804b3b8,-0x2c(%ebp)
 8048f58:	eb 24                	jmp    8048f7e <__vprintf+0x390>
 8048f5a:	c7 44 24 0c 20 b4 04 	movl   $0x804b420,0xc(%esp)
 8048f61:	08 
 8048f62:	c7 44 24 08 54 b6 04 	movl   $0x804b654,0x8(%esp)
 8048f69:	08 
 8048f6a:	c7 44 24 04 ff 00 00 	movl   $0xff,0x4(%esp)
 8048f71:	00 
 8048f72:	c7 04 24 42 b4 04 08 	movl   $0x804b442,(%esp)
 8048f79:	e8 b5 1a 00 00       	call   804aa33 <debug_panic>
 8048f7e:	8b 45 14             	mov    0x14(%ebp),%eax
 8048f81:	89 44 24 1c          	mov    %eax,0x1c(%esp)
 8048f85:	8b 45 10             	mov    0x10(%ebp),%eax
 8048f88:	89 44 24 18          	mov    %eax,0x18(%esp)
 8048f8c:	8d 45 98             	lea    -0x68(%ebp),%eax
 8048f8f:	89 44 24 14          	mov    %eax,0x14(%esp)
 8048f93:	8b 45 d4             	mov    -0x2c(%ebp),%eax
 8048f96:	89 44 24 10          	mov    %eax,0x10(%esp)
 8048f9a:	c7 44 24 0c 00 00 00 	movl   $0x0,0xc(%esp)
 8048fa1:	00 
 8048fa2:	c7 44 24 08 00 00 00 	movl   $0x0,0x8(%esp)
 8048fa9:	00 
 8048faa:	8b 45 d8             	mov    -0x28(%ebp),%eax
 8048fad:	8b 55 dc             	mov    -0x24(%ebp),%edx
 8048fb0:	89 04 24             	mov    %eax,(%esp)
 8048fb3:	89 54 24 04          	mov    %edx,0x4(%esp)
 8048fb7:	e8 66 05 00 00       	call   8049522 <format_integer>
 8048fbc:	e9 84 02 00 00       	jmp    8049245 <__vprintf+0x657>
 8048fc1:	8b 45 0c             	mov    0xc(%ebp),%eax
 8048fc4:	8d 50 04             	lea    0x4(%eax),%edx
 8048fc7:	89 55 0c             	mov    %edx,0xc(%ebp)
 8048fca:	8b 00                	mov    (%eax),%eax
 8048fcc:	88 45 97             	mov    %al,-0x69(%ebp)
 8048fcf:	8b 45 14             	mov    0x14(%ebp),%eax
 8048fd2:	89 44 24 10          	mov    %eax,0x10(%esp)
 8048fd6:	8b 45 10             	mov    0x10(%ebp),%eax
 8048fd9:	89 44 24 0c          	mov    %eax,0xc(%esp)
 8048fdd:	8d 45 98             	lea    -0x68(%ebp),%eax
 8048fe0:	89 44 24 08          	mov    %eax,0x8(%esp)
 8048fe4:	c7 44 24 04 01 00 00 	movl   $0x1,0x4(%esp)
 8048feb:	00 
 8048fec:	8d 45 97             	lea    -0x69(%ebp),%eax
 8048fef:	89 04 24             	mov    %eax,(%esp)
 8048ff2:	e8 c1 08 00 00       	call   80498b8 <format_string>
 8048ff7:	e9 49 02 00 00       	jmp    8049245 <__vprintf+0x657>
 8048ffc:	8b 45 0c             	mov    0xc(%ebp),%eax
 8048fff:	8d 50 04             	lea    0x4(%eax),%edx
 8049002:	89 55 0c             	mov    %edx,0xc(%ebp)
 8049005:	8b 00                	mov    (%eax),%eax
 8049007:	89 45 d0             	mov    %eax,-0x30(%ebp)
 804900a:	83 7d d0 00          	cmpl   $0x0,-0x30(%ebp)
 804900e:	75 07                	jne    8049017 <__vprintf+0x429>
 8049010:	c7 45 d0 54 b4 04 08 	movl   $0x804b454,-0x30(%ebp)
 8049017:	8b 45 a0             	mov    -0x60(%ebp),%eax
 804901a:	89 44 24 04          	mov    %eax,0x4(%esp)
 804901e:	8b 45 d0             	mov    -0x30(%ebp),%eax
 8049021:	89 04 24             	mov    %eax,(%esp)
 8049024:	e8 4e 13 00 00       	call   804a377 <strnlen>
 8049029:	89 c2                	mov    %eax,%edx
 804902b:	8b 45 14             	mov    0x14(%ebp),%eax
 804902e:	89 44 24 10          	mov    %eax,0x10(%esp)
 8049032:	8b 45 10             	mov    0x10(%ebp),%eax
 8049035:	89 44 24 0c          	mov    %eax,0xc(%esp)
 8049039:	8d 45 98             	lea    -0x68(%ebp),%eax
 804903c:	89 44 24 08          	mov    %eax,0x8(%esp)
 8049040:	89 54 24 04          	mov    %edx,0x4(%esp)
 8049044:	8b 45 d0             	mov    -0x30(%ebp),%eax
 8049047:	89 04 24             	mov    %eax,(%esp)
 804904a:	e8 69 08 00 00       	call   80498b8 <format_string>
 804904f:	e9 f1 01 00 00       	jmp    8049245 <__vprintf+0x657>
 8049054:	8b 45 0c             	mov    0xc(%ebp),%eax
 8049057:	8d 50 04             	lea    0x4(%eax),%edx
 804905a:	89 55 0c             	mov    %edx,0xc(%ebp)
 804905d:	8b 00                	mov    (%eax),%eax
 804905f:	89 45 cc             	mov    %eax,-0x34(%ebp)
 8049062:	c7 45 98 08 00 00 00 	movl   $0x8,-0x68(%ebp)
 8049069:	8b 45 cc             	mov    -0x34(%ebp),%eax
 804906c:	ba 00 00 00 00       	mov    $0x0,%edx
 8049071:	8b 4d 14             	mov    0x14(%ebp),%ecx
 8049074:	89 4c 24 1c          	mov    %ecx,0x1c(%esp)
 8049078:	8b 4d 10             	mov    0x10(%ebp),%ecx
 804907b:	89 4c 24 18          	mov    %ecx,0x18(%esp)
 804907f:	8d 4d 98             	lea    -0x68(%ebp),%ecx
 8049082:	89 4c 24 14          	mov    %ecx,0x14(%esp)
 8049086:	c7 44 24 10 94 b3 04 	movl   $0x804b394,0x10(%esp)
 804908d:	08 
 804908e:	c7 44 24 0c 00 00 00 	movl   $0x0,0xc(%esp)
 8049095:	00 
 8049096:	c7 44 24 08 00 00 00 	movl   $0x0,0x8(%esp)
 804909d:	00 
 804909e:	89 04 24             	mov    %eax,(%esp)
 80490a1:	89 54 24 04          	mov    %edx,0x4(%esp)
 80490a5:	e8 78 04 00 00       	call   8049522 <format_integer>
 80490aa:	e9 96 01 00 00       	jmp    8049245 <__vprintf+0x657>
 80490af:	8b 45 a0             	mov    -0x60(%ebp),%eax
 80490b2:	85 c0                	test   %eax,%eax
 80490b4:	79 08                	jns    80490be <__vprintf+0x4d0>
 80490b6:	b8 06 00 00 00       	mov    $0x6,%eax
 80490bb:	89 45 a0             	mov    %eax,-0x60(%ebp)
 80490be:	8b 45 a0             	mov    -0x60(%ebp),%eax
 80490c1:	ba 09 00 00 00       	mov    $0x9,%edx
 80490c6:	39 d0                	cmp    %edx,%eax
 80490c8:	7e 08                	jle    80490d2 <__vprintf+0x4e4>
 80490ca:	b8 09 00 00 00       	mov    $0x9,%eax
 80490cf:	89 45 a0             	mov    %eax,-0x60(%ebp)
 80490d2:	8b 45 0c             	mov    0xc(%ebp),%eax
 80490d5:	8d 50 08             	lea    0x8(%eax),%edx
 80490d8:	89 55 0c             	mov    %edx,0xc(%ebp)
 80490db:	dd 00                	fldl   (%eax)
 80490dd:	dd 5d c0             	fstpl  -0x40(%ebp)
 80490e0:	dd 45 c0             	fldl   -0x40(%ebp)
 80490e3:	d9 7d 86             	fnstcw -0x7a(%ebp)
 80490e6:	0f b7 45 86          	movzwl -0x7a(%ebp),%eax
 80490ea:	66 0d 00 0c          	or     $0xc00,%ax
 80490ee:	66 89 45 84          	mov    %ax,-0x7c(%ebp)
 80490f2:	d9 6d 84             	fldcw  -0x7c(%ebp)
 80490f5:	db 5d bc             	fistpl -0x44(%ebp)
 80490f8:	d9 6d 86             	fldcw  -0x7a(%ebp)
 80490fb:	db 45 bc             	fildl  -0x44(%ebp)
 80490fe:	dd 45 c0             	fldl   -0x40(%ebp)
 8049101:	de e1                	fsubp  %st,%st(1)
 8049103:	8b 45 a0             	mov    -0x60(%ebp),%eax
 8049106:	8b 04 85 e0 b3 04 08 	mov    0x804b3e0(,%eax,4),%eax
 804910d:	89 85 78 ff ff ff    	mov    %eax,-0x88(%ebp)
 8049113:	db 85 78 ff ff ff    	fildl  -0x88(%ebp)
 8049119:	de c9                	fmulp  %st,%st(1)
 804911b:	dd 5d b0             	fstpl  -0x50(%ebp)
 804911e:	dd 45 b0             	fldl   -0x50(%ebp)
 8049121:	d9 6d 84             	fldcw  -0x7c(%ebp)
 8049124:	db 5d ac             	fistpl -0x54(%ebp)
 8049127:	d9 6d 86             	fldcw  -0x7a(%ebp)
 804912a:	8b 45 a0             	mov    -0x60(%ebp),%eax
 804912d:	89 45 a8             	mov    %eax,-0x58(%ebp)
 8049130:	c7 45 a0 ff ff ff ff 	movl   $0xffffffff,-0x60(%ebp)
 8049137:	dd 45 c0             	fldl   -0x40(%ebp)
 804913a:	d9 ee                	fldz   
 804913c:	df e9                	fucomip %st(1),%st
 804913e:	dd d8                	fstp   %st(0)
 8049140:	0f 97 c0             	seta   %al
 8049143:	0f b6 c8             	movzbl %al,%ecx
 8049146:	8b 45 bc             	mov    -0x44(%ebp),%eax
 8049149:	99                   	cltd   
 804914a:	89 d0                	mov    %edx,%eax
 804914c:	33 45 bc             	xor    -0x44(%ebp),%eax
 804914f:	29 d0                	sub    %edx,%eax
 8049151:	99                   	cltd   
 8049152:	8b 7d 14             	mov    0x14(%ebp),%edi
 8049155:	89 7c 24 1c          	mov    %edi,0x1c(%esp)
 8049159:	8b 7d 10             	mov    0x10(%ebp),%edi
 804915c:	89 7c 24 18          	mov    %edi,0x18(%esp)
 8049160:	8d 7d 98             	lea    -0x68(%ebp),%edi
 8049163:	89 7c 24 14          	mov    %edi,0x14(%esp)
 8049167:	c7 44 24 10 54 b3 04 	movl   $0x804b354,0x10(%esp)
 804916e:	08 
 804916f:	89 4c 24 0c          	mov    %ecx,0xc(%esp)
 8049173:	c7 44 24 08 01 00 00 	movl   $0x1,0x8(%esp)
 804917a:	00 
 804917b:	89 04 24             	mov    %eax,(%esp)
 804917e:	89 54 24 04          	mov    %edx,0x4(%esp)
 8049182:	e8 9b 03 00 00       	call   8049522 <format_integer>
 8049187:	8b 45 14             	mov    0x14(%ebp),%eax
 804918a:	89 44 24 04          	mov    %eax,0x4(%esp)
 804918e:	c7 04 24 2e 00 00 00 	movl   $0x2e,(%esp)
 8049195:	8b 45 10             	mov    0x10(%ebp),%eax
 8049198:	ff d0                	call   *%eax
 804919a:	83 7d a8 00          	cmpl   $0x0,-0x58(%ebp)
 804919e:	74 05                	je     80491a5 <__vprintf+0x5b7>
 80491a0:	8b 45 a8             	mov    -0x58(%ebp),%eax
 80491a3:	eb 05                	jmp    80491aa <__vprintf+0x5bc>
 80491a5:	b8 01 00 00 00       	mov    $0x1,%eax
 80491aa:	89 45 a0             	mov    %eax,-0x60(%ebp)
 80491ad:	8b 45 ac             	mov    -0x54(%ebp),%eax
 80491b0:	99                   	cltd   
 80491b1:	89 d0                	mov    %edx,%eax
 80491b3:	33 45 ac             	xor    -0x54(%ebp),%eax
 80491b6:	29 d0                	sub    %edx,%eax
 80491b8:	99                   	cltd   
 80491b9:	8b 4d 14             	mov    0x14(%ebp),%ecx
 80491bc:	89 4c 24 1c          	mov    %ecx,0x1c(%esp)
 80491c0:	8b 4d 10             	mov    0x10(%ebp),%ecx
 80491c3:	89 4c 24 18          	mov    %ecx,0x18(%esp)
 80491c7:	8d 4d 98             	lea    -0x68(%ebp),%ecx
 80491ca:	89 4c 24 14          	mov    %ecx,0x14(%esp)
 80491ce:	c7 44 24 10 54 b3 04 	movl   $0x804b354,0x10(%esp)
 80491d5:	08 
 80491d6:	c7 44 24 0c 00 00 00 	movl   $0x0,0xc(%esp)
 80491dd:	00 
 80491de:	c7 44 24 08 00 00 00 	movl   $0x0,0x8(%esp)
 80491e5:	00 
 80491e6:	89 04 24             	mov    %eax,(%esp)
 80491e9:	89 54 24 04          	mov    %edx,0x4(%esp)
 80491ed:	e8 30 03 00 00       	call   8049522 <format_integer>
 80491f2:	eb 51                	jmp    8049245 <__vprintf+0x657>
 80491f4:	8b 45 08             	mov    0x8(%ebp),%eax
 80491f7:	0f b6 00             	movzbl (%eax),%eax
 80491fa:	0f be c0             	movsbl %al,%eax
 80491fd:	89 44 24 0c          	mov    %eax,0xc(%esp)
 8049201:	8b 45 14             	mov    0x14(%ebp),%eax
 8049204:	89 44 24 08          	mov    %eax,0x8(%esp)
 8049208:	8b 45 10             	mov    0x10(%ebp),%eax
 804920b:	89 44 24 04          	mov    %eax,0x4(%esp)
 804920f:	c7 04 24 5b b4 04 08 	movl   $0x804b45b,(%esp)
 8049216:	e8 57 07 00 00       	call   8049972 <__printf>
 804921b:	eb 28                	jmp    8049245 <__vprintf+0x657>
 804921d:	8b 45 08             	mov    0x8(%ebp),%eax
 8049220:	0f b6 00             	movzbl (%eax),%eax
 8049223:	0f be c0             	movsbl %al,%eax
 8049226:	89 44 24 0c          	mov    %eax,0xc(%esp)
 804922a:	8b 45 14             	mov    0x14(%ebp),%eax
 804922d:	89 44 24 08          	mov    %eax,0x8(%esp)
 8049231:	8b 45 10             	mov    0x10(%ebp),%eax
 8049234:	89 44 24 04          	mov    %eax,0x4(%esp)
 8049238:	c7 04 24 71 b4 04 08 	movl   $0x804b471,(%esp)
 804923f:	e8 2e 07 00 00       	call   8049972 <__printf>
 8049244:	90                   	nop
 8049245:	ff 45 08             	incl   0x8(%ebp)
 8049248:	8b 45 08             	mov    0x8(%ebp),%eax
 804924b:	0f b6 00             	movzbl (%eax),%eax
 804924e:	84 c0                	test   %al,%al
 8049250:	0f 85 a9 f9 ff ff    	jne    8048bff <__vprintf+0x11>
 8049256:	90                   	nop
 8049257:	81 c4 9c 00 00 00    	add    $0x9c,%esp
 804925d:	5b                   	pop    %ebx
 804925e:	5e                   	pop    %esi
 804925f:	5f                   	pop    %edi
 8049260:	5d                   	pop    %ebp
 8049261:	c3                   	ret    

08049262 <parse_conversion>:
 8049262:	55                   	push   %ebp
 8049263:	89 e5                	mov    %esp,%ebp
 8049265:	83 ec 04             	sub    $0x4,%esp
 8049268:	8b 45 0c             	mov    0xc(%ebp),%eax
 804926b:	c7 00 00 00 00 00    	movl   $0x0,(%eax)
 8049271:	8b 45 08             	mov    0x8(%ebp),%eax
 8049274:	8d 50 01             	lea    0x1(%eax),%edx
 8049277:	89 55 08             	mov    %edx,0x8(%ebp)
 804927a:	0f b6 00             	movzbl (%eax),%eax
 804927d:	0f be c0             	movsbl %al,%eax
 8049280:	83 e8 20             	sub    $0x20,%eax
 8049283:	83 f8 10             	cmp    $0x10,%eax
 8049286:	77 6f                	ja     80492f7 <parse_conversion+0x95>
 8049288:	8b 04 85 a0 b5 04 08 	mov    0x804b5a0(,%eax,4),%eax
 804928f:	ff e0                	jmp    *%eax
 8049291:	8b 45 0c             	mov    0xc(%ebp),%eax
 8049294:	8b 00                	mov    (%eax),%eax
 8049296:	83 c8 01             	or     $0x1,%eax
 8049299:	89 c2                	mov    %eax,%edx
 804929b:	8b 45 0c             	mov    0xc(%ebp),%eax
 804929e:	89 10                	mov    %edx,(%eax)
 80492a0:	eb 67                	jmp    8049309 <parse_conversion+0xa7>
 80492a2:	8b 45 0c             	mov    0xc(%ebp),%eax
 80492a5:	8b 00                	mov    (%eax),%eax
 80492a7:	83 c8 02             	or     $0x2,%eax
 80492aa:	89 c2                	mov    %eax,%edx
 80492ac:	8b 45 0c             	mov    0xc(%ebp),%eax
 80492af:	89 10                	mov    %edx,(%eax)
 80492b1:	eb 56                	jmp    8049309 <parse_conversion+0xa7>
 80492b3:	8b 45 0c             	mov    0xc(%ebp),%eax
 80492b6:	8b 00                	mov    (%eax),%eax
 80492b8:	83 c8 04             	or     $0x4,%eax
 80492bb:	89 c2                	mov    %eax,%edx
 80492bd:	8b 45 0c             	mov    0xc(%ebp),%eax
 80492c0:	89 10                	mov    %edx,(%eax)
 80492c2:	eb 45                	jmp    8049309 <parse_conversion+0xa7>
 80492c4:	8b 45 0c             	mov    0xc(%ebp),%eax
 80492c7:	8b 00                	mov    (%eax),%eax
 80492c9:	83 c8 08             	or     $0x8,%eax
 80492cc:	89 c2                	mov    %eax,%edx
 80492ce:	8b 45 0c             	mov    0xc(%ebp),%eax
 80492d1:	89 10                	mov    %edx,(%eax)
 80492d3:	eb 34                	jmp    8049309 <parse_conversion+0xa7>
 80492d5:	8b 45 0c             	mov    0xc(%ebp),%eax
 80492d8:	8b 00                	mov    (%eax),%eax
 80492da:	83 c8 10             	or     $0x10,%eax
 80492dd:	89 c2                	mov    %eax,%edx
 80492df:	8b 45 0c             	mov    0xc(%ebp),%eax
 80492e2:	89 10                	mov    %edx,(%eax)
 80492e4:	eb 23                	jmp    8049309 <parse_conversion+0xa7>
 80492e6:	8b 45 0c             	mov    0xc(%ebp),%eax
 80492e9:	8b 00                	mov    (%eax),%eax
 80492eb:	83 c8 20             	or     $0x20,%eax
 80492ee:	89 c2                	mov    %eax,%edx
 80492f0:	8b 45 0c             	mov    0xc(%ebp),%eax
 80492f3:	89 10                	mov    %edx,(%eax)
 80492f5:	eb 12                	jmp    8049309 <parse_conversion+0xa7>
 80492f7:	ff 4d 08             	decl   0x8(%ebp)
 80492fa:	90                   	nop
 80492fb:	8b 45 0c             	mov    0xc(%ebp),%eax
 80492fe:	8b 00                	mov    (%eax),%eax
 8049300:	83 e0 01             	and    $0x1,%eax
 8049303:	85 c0                	test   %eax,%eax
 8049305:	74 16                	je     804931d <parse_conversion+0xbb>
 8049307:	eb 05                	jmp    804930e <parse_conversion+0xac>
 8049309:	e9 63 ff ff ff       	jmp    8049271 <parse_conversion+0xf>
 804930e:	8b 45 0c             	mov    0xc(%ebp),%eax
 8049311:	8b 00                	mov    (%eax),%eax
 8049313:	83 e0 ef             	and    $0xffffffef,%eax
 8049316:	89 c2                	mov    %eax,%edx
 8049318:	8b 45 0c             	mov    0xc(%ebp),%eax
 804931b:	89 10                	mov    %edx,(%eax)
 804931d:	8b 45 0c             	mov    0xc(%ebp),%eax
 8049320:	8b 00                	mov    (%eax),%eax
 8049322:	83 e0 02             	and    $0x2,%eax
 8049325:	85 c0                	test   %eax,%eax
 8049327:	74 0f                	je     8049338 <parse_conversion+0xd6>
 8049329:	8b 45 0c             	mov    0xc(%ebp),%eax
 804932c:	8b 00                	mov    (%eax),%eax
 804932e:	83 e0 fb             	and    $0xfffffffb,%eax
 8049331:	89 c2                	mov    %eax,%edx
 8049333:	8b 45 0c             	mov    0xc(%ebp),%eax
 8049336:	89 10                	mov    %edx,(%eax)
 8049338:	8b 45 0c             	mov    0xc(%ebp),%eax
 804933b:	c7 40 04 00 00 00 00 	movl   $0x0,0x4(%eax)
 8049342:	8b 45 08             	mov    0x8(%ebp),%eax
 8049345:	0f b6 00             	movzbl (%eax),%eax
 8049348:	3c 2a                	cmp    $0x2a,%al
 804934a:	75 42                	jne    804938e <parse_conversion+0x12c>
 804934c:	ff 45 08             	incl   0x8(%ebp)
 804934f:	8b 45 10             	mov    0x10(%ebp),%eax
 8049352:	8b 00                	mov    (%eax),%eax
 8049354:	8d 48 04             	lea    0x4(%eax),%ecx
 8049357:	8b 55 10             	mov    0x10(%ebp),%edx
 804935a:	89 0a                	mov    %ecx,(%edx)
 804935c:	8b 10                	mov    (%eax),%edx
 804935e:	8b 45 0c             	mov    0xc(%ebp),%eax
 8049361:	89 50 04             	mov    %edx,0x4(%eax)
 8049364:	eb 3d                	jmp    80493a3 <parse_conversion+0x141>
 8049366:	8b 45 0c             	mov    0xc(%ebp),%eax
 8049369:	8b 50 04             	mov    0x4(%eax),%edx
 804936c:	89 d0                	mov    %edx,%eax
 804936e:	c1 e0 02             	shl    $0x2,%eax
 8049371:	01 d0                	add    %edx,%eax
 8049373:	01 c0                	add    %eax,%eax
 8049375:	89 c2                	mov    %eax,%edx
 8049377:	8b 45 08             	mov    0x8(%ebp),%eax
 804937a:	0f b6 00             	movzbl (%eax),%eax
 804937d:	0f be c0             	movsbl %al,%eax
 8049380:	01 d0                	add    %edx,%eax
 8049382:	8d 50 d0             	lea    -0x30(%eax),%edx
 8049385:	8b 45 0c             	mov    0xc(%ebp),%eax
 8049388:	89 50 04             	mov    %edx,0x4(%eax)
 804938b:	ff 45 08             	incl   0x8(%ebp)
 804938e:	8b 45 08             	mov    0x8(%ebp),%eax
 8049391:	0f b6 00             	movzbl (%eax),%eax
 8049394:	0f be c0             	movsbl %al,%eax
 8049397:	89 04 24             	mov    %eax,(%esp)
 804939a:	e8 21 f7 ff ff       	call   8048ac0 <isdigit>
 804939f:	85 c0                	test   %eax,%eax
 80493a1:	75 c3                	jne    8049366 <parse_conversion+0x104>
 80493a3:	8b 45 0c             	mov    0xc(%ebp),%eax
 80493a6:	8b 40 04             	mov    0x4(%eax),%eax
 80493a9:	85 c0                	test   %eax,%eax
 80493ab:	79 1f                	jns    80493cc <parse_conversion+0x16a>
 80493ad:	8b 45 0c             	mov    0xc(%ebp),%eax
 80493b0:	8b 40 04             	mov    0x4(%eax),%eax
 80493b3:	f7 d8                	neg    %eax
 80493b5:	89 c2                	mov    %eax,%edx
 80493b7:	8b 45 0c             	mov    0xc(%ebp),%eax
 80493ba:	89 50 04             	mov    %edx,0x4(%eax)
 80493bd:	8b 45 0c             	mov    0xc(%ebp),%eax
 80493c0:	8b 00                	mov    (%eax),%eax
 80493c2:	83 c8 01             	or     $0x1,%eax
 80493c5:	89 c2                	mov    %eax,%edx
 80493c7:	8b 45 0c             	mov    0xc(%ebp),%eax
 80493ca:	89 10                	mov    %edx,(%eax)
 80493cc:	8b 45 0c             	mov    0xc(%ebp),%eax
 80493cf:	c7 40 08 ff ff ff ff 	movl   $0xffffffff,0x8(%eax)
 80493d6:	8b 45 08             	mov    0x8(%ebp),%eax
 80493d9:	0f b6 00             	movzbl (%eax),%eax
 80493dc:	3c 2e                	cmp    $0x2e,%al
 80493de:	0f 85 84 00 00 00    	jne    8049468 <parse_conversion+0x206>
 80493e4:	ff 45 08             	incl   0x8(%ebp)
 80493e7:	8b 45 08             	mov    0x8(%ebp),%eax
 80493ea:	0f b6 00             	movzbl (%eax),%eax
 80493ed:	3c 2a                	cmp    $0x2a,%al
 80493ef:	75 1a                	jne    804940b <parse_conversion+0x1a9>
 80493f1:	ff 45 08             	incl   0x8(%ebp)
 80493f4:	8b 45 10             	mov    0x10(%ebp),%eax
 80493f7:	8b 00                	mov    (%eax),%eax
 80493f9:	8d 48 04             	lea    0x4(%eax),%ecx
 80493fc:	8b 55 10             	mov    0x10(%ebp),%edx
 80493ff:	89 0a                	mov    %ecx,(%edx)
 8049401:	8b 10                	mov    (%eax),%edx
 8049403:	8b 45 0c             	mov    0xc(%ebp),%eax
 8049406:	89 50 08             	mov    %edx,0x8(%eax)
 8049409:	eb 49                	jmp    8049454 <parse_conversion+0x1f2>
 804940b:	8b 45 0c             	mov    0xc(%ebp),%eax
 804940e:	c7 40 08 00 00 00 00 	movl   $0x0,0x8(%eax)
 8049415:	eb 28                	jmp    804943f <parse_conversion+0x1dd>
 8049417:	8b 45 0c             	mov    0xc(%ebp),%eax
 804941a:	8b 50 08             	mov    0x8(%eax),%edx
 804941d:	89 d0                	mov    %edx,%eax
 804941f:	c1 e0 02             	shl    $0x2,%eax
 8049422:	01 d0                	add    %edx,%eax
 8049424:	01 c0                	add    %eax,%eax
 8049426:	89 c2                	mov    %eax,%edx
 8049428:	8b 45 08             	mov    0x8(%ebp),%eax
 804942b:	0f b6 00             	movzbl (%eax),%eax
 804942e:	0f be c0             	movsbl %al,%eax
 8049431:	01 d0                	add    %edx,%eax
 8049433:	8d 50 d0             	lea    -0x30(%eax),%edx
 8049436:	8b 45 0c             	mov    0xc(%ebp),%eax
 8049439:	89 50 08             	mov    %edx,0x8(%eax)
 804943c:	ff 45 08             	incl   0x8(%ebp)
 804943f:	8b 45 08             	mov    0x8(%ebp),%eax
 8049442:	0f b6 00             	movzbl (%eax),%eax
 8049445:	0f be c0             	movsbl %al,%eax
 8049448:	89 04 24             	mov    %eax,(%esp)
 804944b:	e8 70 f6 ff ff       	call   8048ac0 <isdigit>
 8049450:	85 c0                	test   %eax,%eax
 8049452:	75 c3                	jne    8049417 <parse_conversion+0x1b5>
 8049454:	8b 45 0c             	mov    0xc(%ebp),%eax
 8049457:	8b 40 08             	mov    0x8(%eax),%eax
 804945a:	85 c0                	test   %eax,%eax
 804945c:	79 0a                	jns    8049468 <parse_conversion+0x206>
 804945e:	8b 45 0c             	mov    0xc(%ebp),%eax
 8049461:	c7 40 08 ff ff ff ff 	movl   $0xffffffff,0x8(%eax)
 8049468:	8b 45 0c             	mov    0xc(%ebp),%eax
 804946b:	8b 40 08             	mov    0x8(%eax),%eax
 804946e:	85 c0                	test   %eax,%eax
 8049470:	78 0f                	js     8049481 <parse_conversion+0x21f>
 8049472:	8b 45 0c             	mov    0xc(%ebp),%eax
 8049475:	8b 00                	mov    (%eax),%eax
 8049477:	83 e0 ef             	and    $0xffffffef,%eax
 804947a:	89 c2                	mov    %eax,%edx
 804947c:	8b 45 0c             	mov    0xc(%ebp),%eax
 804947f:	89 10                	mov    %edx,(%eax)
 8049481:	8b 45 0c             	mov    0xc(%ebp),%eax
 8049484:	c7 40 0c 03 00 00 00 	movl   $0x3,0xc(%eax)
 804948b:	8b 45 08             	mov    0x8(%ebp),%eax
 804948e:	8d 50 01             	lea    0x1(%eax),%edx
 8049491:	89 55 08             	mov    %edx,0x8(%ebp)
 8049494:	0f b6 00             	movzbl (%eax),%eax
 8049497:	0f be c0             	movsbl %al,%eax
 804949a:	83 e8 68             	sub    $0x68,%eax
 804949d:	83 f8 12             	cmp    $0x12,%eax
 80494a0:	77 77                	ja     8049519 <parse_conversion+0x2b7>
 80494a2:	8b 04 85 e4 b5 04 08 	mov    0x804b5e4(,%eax,4),%eax
 80494a9:	ff e0                	jmp    *%eax
 80494ab:	8b 45 08             	mov    0x8(%ebp),%eax
 80494ae:	0f b6 00             	movzbl (%eax),%eax
 80494b1:	3c 68                	cmp    $0x68,%al
 80494b3:	75 0f                	jne    80494c4 <parse_conversion+0x262>
 80494b5:	ff 45 08             	incl   0x8(%ebp)
 80494b8:	8b 45 0c             	mov    0xc(%ebp),%eax
 80494bb:	c7 40 0c 01 00 00 00 	movl   $0x1,0xc(%eax)
 80494c2:	eb 59                	jmp    804951d <parse_conversion+0x2bb>
 80494c4:	8b 45 0c             	mov    0xc(%ebp),%eax
 80494c7:	c7 40 0c 02 00 00 00 	movl   $0x2,0xc(%eax)
 80494ce:	eb 4d                	jmp    804951d <parse_conversion+0x2bb>
 80494d0:	8b 45 0c             	mov    0xc(%ebp),%eax
 80494d3:	c7 40 0c 04 00 00 00 	movl   $0x4,0xc(%eax)
 80494da:	eb 41                	jmp    804951d <parse_conversion+0x2bb>
 80494dc:	8b 45 08             	mov    0x8(%ebp),%eax
 80494df:	0f b6 00             	movzbl (%eax),%eax
 80494e2:	3c 6c                	cmp    $0x6c,%al
 80494e4:	75 0f                	jne    80494f5 <parse_conversion+0x293>
 80494e6:	ff 45 08             	incl   0x8(%ebp)
 80494e9:	8b 45 0c             	mov    0xc(%ebp),%eax
 80494ec:	c7 40 0c 06 00 00 00 	movl   $0x6,0xc(%eax)
 80494f3:	eb 28                	jmp    804951d <parse_conversion+0x2bb>
 80494f5:	8b 45 0c             	mov    0xc(%ebp),%eax
 80494f8:	c7 40 0c 05 00 00 00 	movl   $0x5,0xc(%eax)
 80494ff:	eb 1c                	jmp    804951d <parse_conversion+0x2bb>
 8049501:	8b 45 0c             	mov    0xc(%ebp),%eax
 8049504:	c7 40 0c 07 00 00 00 	movl   $0x7,0xc(%eax)
 804950b:	eb 10                	jmp    804951d <parse_conversion+0x2bb>
 804950d:	8b 45 0c             	mov    0xc(%ebp),%eax
 8049510:	c7 40 0c 08 00 00 00 	movl   $0x8,0xc(%eax)
 8049517:	eb 04                	jmp    804951d <parse_conversion+0x2bb>
 8049519:	ff 4d 08             	decl   0x8(%ebp)
 804951c:	90                   	nop
 804951d:	8b 45 08             	mov    0x8(%ebp),%eax
 8049520:	c9                   	leave  
 8049521:	c3                   	ret    

08049522 <format_integer>:
 8049522:	55                   	push   %ebp
 8049523:	89 e5                	mov    %esp,%ebp
 8049525:	57                   	push   %edi
 8049526:	56                   	push   %esi
 8049527:	53                   	push   %ebx
 8049528:	81 ec 9c 00 00 00    	sub    $0x9c,%esp
 804952e:	8b 5d 10             	mov    0x10(%ebp),%ebx
 8049531:	89 9d 74 ff ff ff    	mov    %ebx,-0x8c(%ebp)
 8049537:	8b 5d 14             	mov    0x14(%ebp),%ebx
 804953a:	8b 4d 08             	mov    0x8(%ebp),%ecx
 804953d:	89 4d 80             	mov    %ecx,-0x80(%ebp)
 8049540:	8b 4d 0c             	mov    0xc(%ebp),%ecx
 8049543:	89 4d 84             	mov    %ecx,-0x7c(%ebp)
 8049546:	0f b6 8d 74 ff ff ff 	movzbl -0x8c(%ebp),%ecx
 804954d:	88 8d 7c ff ff ff    	mov    %cl,-0x84(%ebp)
 8049553:	88 d9                	mov    %bl,%cl
 8049555:	88 8d 78 ff ff ff    	mov    %cl,-0x88(%ebp)
 804955b:	c7 45 e0 00 00 00 00 	movl   $0x0,-0x20(%ebp)
 8049562:	80 bd 7c ff ff ff 00 	cmpb   $0x0,-0x84(%ebp)
 8049569:	74 5c                	je     80495c7 <format_integer+0xa5>
 804956b:	8b 4d 1c             	mov    0x1c(%ebp),%ecx
 804956e:	8b 09                	mov    (%ecx),%ecx
 8049570:	83 e1 02             	and    $0x2,%ecx
 8049573:	85 c9                	test   %ecx,%ecx
 8049575:	74 1a                	je     8049591 <format_integer+0x6f>
 8049577:	80 bd 78 ff ff ff 00 	cmpb   $0x0,-0x88(%ebp)
 804957e:	74 07                	je     8049587 <format_integer+0x65>
 8049580:	b9 2d 00 00 00       	mov    $0x2d,%ecx
 8049585:	eb 05                	jmp    804958c <format_integer+0x6a>
 8049587:	b9 2b 00 00 00       	mov    $0x2b,%ecx
 804958c:	89 4d e0             	mov    %ecx,-0x20(%ebp)
 804958f:	eb 36                	jmp    80495c7 <format_integer+0xa5>
 8049591:	8b 4d 1c             	mov    0x1c(%ebp),%ecx
 8049594:	8b 09                	mov    (%ecx),%ecx
 8049596:	83 e1 04             	and    $0x4,%ecx
 8049599:	85 c9                	test   %ecx,%ecx
 804959b:	74 1a                	je     80495b7 <format_integer+0x95>
 804959d:	80 bd 78 ff ff ff 00 	cmpb   $0x0,-0x88(%ebp)
 80495a4:	74 07                	je     80495ad <format_integer+0x8b>
 80495a6:	b9 2d 00 00 00       	mov    $0x2d,%ecx
 80495ab:	eb 05                	jmp    80495b2 <format_integer+0x90>
 80495ad:	b9 20 00 00 00       	mov    $0x20,%ecx
 80495b2:	89 4d e0             	mov    %ecx,-0x20(%ebp)
 80495b5:	eb 10                	jmp    80495c7 <format_integer+0xa5>
 80495b7:	80 bd 78 ff ff ff 00 	cmpb   $0x0,-0x88(%ebp)
 80495be:	74 07                	je     80495c7 <format_integer+0xa5>
 80495c0:	c7 45 e0 2d 00 00 00 	movl   $0x2d,-0x20(%ebp)
 80495c7:	8b 4d 1c             	mov    0x1c(%ebp),%ecx
 80495ca:	8b 09                	mov    (%ecx),%ecx
 80495cc:	83 e1 08             	and    $0x8,%ecx
 80495cf:	85 c9                	test   %ecx,%ecx
 80495d1:	74 1e                	je     80495f1 <format_integer+0xcf>
 80495d3:	8b 4d 80             	mov    -0x80(%ebp),%ecx
 80495d6:	83 f1 00             	xor    $0x0,%ecx
 80495d9:	89 c8                	mov    %ecx,%eax
 80495db:	8b 4d 84             	mov    -0x7c(%ebp),%ecx
 80495de:	83 f1 00             	xor    $0x0,%ecx
 80495e1:	89 ca                	mov    %ecx,%edx
 80495e3:	09 d0                	or     %edx,%eax
 80495e5:	85 c0                	test   %eax,%eax
 80495e7:	74 08                	je     80495f1 <format_integer+0xcf>
 80495e9:	8b 45 18             	mov    0x18(%ebp),%eax
 80495ec:	8b 40 08             	mov    0x8(%eax),%eax
 80495ef:	eb 05                	jmp    80495f6 <format_integer+0xd4>
 80495f1:	b8 00 00 00 00       	mov    $0x0,%eax
 80495f6:	89 45 d4             	mov    %eax,-0x2c(%ebp)
 80495f9:	8d 45 90             	lea    -0x70(%ebp),%eax
 80495fc:	89 45 e4             	mov    %eax,-0x1c(%ebp)
 80495ff:	c7 45 d8 00 00 00 00 	movl   $0x0,-0x28(%ebp)
 8049606:	e9 a2 00 00 00       	jmp    80496ad <format_integer+0x18b>
 804960b:	8b 45 1c             	mov    0x1c(%ebp),%eax
 804960e:	8b 00                	mov    (%eax),%eax
 8049610:	83 e0 20             	and    $0x20,%eax
 8049613:	85 c0                	test   %eax,%eax
 8049615:	74 24                	je     804963b <format_integer+0x119>
 8049617:	83 7d d8 00          	cmpl   $0x0,-0x28(%ebp)
 804961b:	7e 1e                	jle    804963b <format_integer+0x119>
 804961d:	8b 45 18             	mov    0x18(%ebp),%eax
 8049620:	8b 48 0c             	mov    0xc(%eax),%ecx
 8049623:	8b 45 d8             	mov    -0x28(%ebp),%eax
 8049626:	99                   	cltd   
 8049627:	f7 f9                	idiv   %ecx
 8049629:	89 d0                	mov    %edx,%eax
 804962b:	85 c0                	test   %eax,%eax
 804962d:	75 0c                	jne    804963b <format_integer+0x119>
 804962f:	8b 45 e4             	mov    -0x1c(%ebp),%eax
 8049632:	8d 50 01             	lea    0x1(%eax),%edx
 8049635:	89 55 e4             	mov    %edx,-0x1c(%ebp)
 8049638:	c6 00 2c             	movb   $0x2c,(%eax)
 804963b:	8b 45 18             	mov    0x18(%ebp),%eax
 804963e:	8b 40 04             	mov    0x4(%eax),%eax
 8049641:	89 85 74 ff ff ff    	mov    %eax,-0x8c(%ebp)
 8049647:	8b 45 18             	mov    0x18(%ebp),%eax
 804964a:	8b 00                	mov    (%eax),%eax
 804964c:	89 c1                	mov    %eax,%ecx
 804964e:	89 c3                	mov    %eax,%ebx
 8049650:	c1 fb 1f             	sar    $0x1f,%ebx
 8049653:	8b 45 80             	mov    -0x80(%ebp),%eax
 8049656:	8b 55 84             	mov    -0x7c(%ebp),%edx
 8049659:	89 4c 24 08          	mov    %ecx,0x8(%esp)
 804965d:	89 5c 24 0c          	mov    %ebx,0xc(%esp)
 8049661:	89 04 24             	mov    %eax,(%esp)
 8049664:	89 54 24 04          	mov    %edx,0x4(%esp)
 8049668:	e8 81 13 00 00       	call   804a9ee <__umoddi3>
 804966d:	8b 9d 74 ff ff ff    	mov    -0x8c(%ebp),%ebx
 8049673:	8d 0c 03             	lea    (%ebx,%eax,1),%ecx
 8049676:	8b 45 e4             	mov    -0x1c(%ebp),%eax
 8049679:	8d 50 01             	lea    0x1(%eax),%edx
 804967c:	89 55 e4             	mov    %edx,-0x1c(%ebp)
 804967f:	0f b6 11             	movzbl (%ecx),%edx
 8049682:	88 10                	mov    %dl,(%eax)
 8049684:	8b 45 18             	mov    0x18(%ebp),%eax
 8049687:	8b 00                	mov    (%eax),%eax
 8049689:	99                   	cltd   
 804968a:	89 44 24 08          	mov    %eax,0x8(%esp)
 804968e:	89 54 24 0c          	mov    %edx,0xc(%esp)
 8049692:	8b 45 80             	mov    -0x80(%ebp),%eax
 8049695:	8b 55 84             	mov    -0x7c(%ebp),%edx
 8049698:	89 04 24             	mov    %eax,(%esp)
 804969b:	89 54 24 04          	mov    %edx,0x4(%esp)
 804969f:	e8 0a 13 00 00       	call   804a9ae <__udivdi3>
 80496a4:	89 45 80             	mov    %eax,-0x80(%ebp)
 80496a7:	89 55 84             	mov    %edx,-0x7c(%ebp)
 80496aa:	ff 45 d8             	incl   -0x28(%ebp)
 80496ad:	8b 45 80             	mov    -0x80(%ebp),%eax
 80496b0:	83 f0 00             	xor    $0x0,%eax
 80496b3:	89 c6                	mov    %eax,%esi
 80496b5:	8b 45 84             	mov    -0x7c(%ebp),%eax
 80496b8:	83 f0 00             	xor    $0x0,%eax
 80496bb:	89 c7                	mov    %eax,%edi
 80496bd:	89 f8                	mov    %edi,%eax
 80496bf:	09 f0                	or     %esi,%eax
 80496c1:	85 c0                	test   %eax,%eax
 80496c3:	0f 85 42 ff ff ff    	jne    804960b <format_integer+0xe9>
 80496c9:	8b 45 1c             	mov    0x1c(%ebp),%eax
 80496cc:	8b 40 08             	mov    0x8(%eax),%eax
 80496cf:	85 c0                	test   %eax,%eax
 80496d1:	78 08                	js     80496db <format_integer+0x1b9>
 80496d3:	8b 45 1c             	mov    0x1c(%ebp),%eax
 80496d6:	8b 40 08             	mov    0x8(%eax),%eax
 80496d9:	eb 05                	jmp    80496e0 <format_integer+0x1be>
 80496db:	b8 01 00 00 00       	mov    $0x1,%eax
 80496e0:	89 45 d0             	mov    %eax,-0x30(%ebp)
 80496e3:	eb 0c                	jmp    80496f1 <format_integer+0x1cf>
 80496e5:	8b 45 e4             	mov    -0x1c(%ebp),%eax
 80496e8:	8d 50 01             	lea    0x1(%eax),%edx
 80496eb:	89 55 e4             	mov    %edx,-0x1c(%ebp)
 80496ee:	c6 00 30             	movb   $0x30,(%eax)
 80496f1:	8b 55 e4             	mov    -0x1c(%ebp),%edx
 80496f4:	8d 45 90             	lea    -0x70(%ebp),%eax
 80496f7:	29 c2                	sub    %eax,%edx
 80496f9:	89 d0                	mov    %edx,%eax
 80496fb:	39 45 d0             	cmp    %eax,-0x30(%ebp)
 80496fe:	7e 0b                	jle    804970b <format_integer+0x1e9>
 8049700:	8d 45 90             	lea    -0x70(%ebp),%eax
 8049703:	83 c0 3f             	add    $0x3f,%eax
 8049706:	39 45 e4             	cmp    %eax,-0x1c(%ebp)
 8049709:	72 da                	jb     80496e5 <format_integer+0x1c3>
 804970b:	8b 45 1c             	mov    0x1c(%ebp),%eax
 804970e:	8b 00                	mov    (%eax),%eax
 8049710:	83 e0 08             	and    $0x8,%eax
 8049713:	85 c0                	test   %eax,%eax
 8049715:	74 29                	je     8049740 <format_integer+0x21e>
 8049717:	8b 45 18             	mov    0x18(%ebp),%eax
 804971a:	8b 00                	mov    (%eax),%eax
 804971c:	83 f8 08             	cmp    $0x8,%eax
 804971f:	75 1f                	jne    8049740 <format_integer+0x21e>
 8049721:	8d 45 90             	lea    -0x70(%ebp),%eax
 8049724:	39 45 e4             	cmp    %eax,-0x1c(%ebp)
 8049727:	74 0b                	je     8049734 <format_integer+0x212>
 8049729:	8b 45 e4             	mov    -0x1c(%ebp),%eax
 804972c:	48                   	dec    %eax
 804972d:	0f b6 00             	movzbl (%eax),%eax
 8049730:	3c 30                	cmp    $0x30,%al
 8049732:	74 0c                	je     8049740 <format_integer+0x21e>
 8049734:	8b 45 e4             	mov    -0x1c(%ebp),%eax
 8049737:	8d 50 01             	lea    0x1(%eax),%edx
 804973a:	89 55 e4             	mov    %edx,-0x1c(%ebp)
 804973d:	c6 00 30             	movb   $0x30,(%eax)
 8049740:	8b 45 1c             	mov    0x1c(%ebp),%eax
 8049743:	8b 40 04             	mov    0x4(%eax),%eax
 8049746:	8b 4d e4             	mov    -0x1c(%ebp),%ecx
 8049749:	8d 55 90             	lea    -0x70(%ebp),%edx
 804974c:	29 d1                	sub    %edx,%ecx
 804974e:	89 ca                	mov    %ecx,%edx
 8049750:	29 d0                	sub    %edx,%eax
 8049752:	89 c2                	mov    %eax,%edx
 8049754:	83 7d d4 00          	cmpl   $0x0,-0x2c(%ebp)
 8049758:	74 07                	je     8049761 <format_integer+0x23f>
 804975a:	b8 02 00 00 00       	mov    $0x2,%eax
 804975f:	eb 05                	jmp    8049766 <format_integer+0x244>
 8049761:	b8 00 00 00 00       	mov    $0x0,%eax
 8049766:	29 c2                	sub    %eax,%edx
 8049768:	83 7d e0 00          	cmpl   $0x0,-0x20(%ebp)
 804976c:	0f 95 c0             	setne  %al
 804976f:	0f b6 c0             	movzbl %al,%eax
 8049772:	29 c2                	sub    %eax,%edx
 8049774:	89 d0                	mov    %edx,%eax
 8049776:	89 45 dc             	mov    %eax,-0x24(%ebp)
 8049779:	83 7d dc 00          	cmpl   $0x0,-0x24(%ebp)
 804977d:	79 07                	jns    8049786 <format_integer+0x264>
 804977f:	c7 45 dc 00 00 00 00 	movl   $0x0,-0x24(%ebp)
 8049786:	8b 45 1c             	mov    0x1c(%ebp),%eax
 8049789:	8b 00                	mov    (%eax),%eax
 804978b:	83 e0 11             	and    $0x11,%eax
 804978e:	85 c0                	test   %eax,%eax
 8049790:	75 21                	jne    80497b3 <format_integer+0x291>
 8049792:	8b 45 dc             	mov    -0x24(%ebp),%eax
 8049795:	8b 55 24             	mov    0x24(%ebp),%edx
 8049798:	89 54 24 0c          	mov    %edx,0xc(%esp)
 804979c:	8b 55 20             	mov    0x20(%ebp),%edx
 804979f:	89 54 24 08          	mov    %edx,0x8(%esp)
 80497a3:	89 44 24 04          	mov    %eax,0x4(%esp)
 80497a7:	c7 04 24 20 00 00 00 	movl   $0x20,(%esp)
 80497ae:	e8 d4 00 00 00       	call   8049887 <output_dup>
 80497b3:	83 7d e0 00          	cmpl   $0x0,-0x20(%ebp)
 80497b7:	74 15                	je     80497ce <format_integer+0x2ac>
 80497b9:	8b 45 e0             	mov    -0x20(%ebp),%eax
 80497bc:	0f be c0             	movsbl %al,%eax
 80497bf:	8b 55 24             	mov    0x24(%ebp),%edx
 80497c2:	89 54 24 04          	mov    %edx,0x4(%esp)
 80497c6:	89 04 24             	mov    %eax,(%esp)
 80497c9:	8b 45 20             	mov    0x20(%ebp),%eax
 80497cc:	ff d0                	call   *%eax
 80497ce:	83 7d d4 00          	cmpl   $0x0,-0x2c(%ebp)
 80497d2:	74 28                	je     80497fc <format_integer+0x2da>
 80497d4:	8b 45 24             	mov    0x24(%ebp),%eax
 80497d7:	89 44 24 04          	mov    %eax,0x4(%esp)
 80497db:	c7 04 24 30 00 00 00 	movl   $0x30,(%esp)
 80497e2:	8b 45 20             	mov    0x20(%ebp),%eax
 80497e5:	ff d0                	call   *%eax
 80497e7:	8b 45 d4             	mov    -0x2c(%ebp),%eax
 80497ea:	0f be c0             	movsbl %al,%eax
 80497ed:	8b 55 24             	mov    0x24(%ebp),%edx
 80497f0:	89 54 24 04          	mov    %edx,0x4(%esp)
 80497f4:	89 04 24             	mov    %eax,(%esp)
 80497f7:	8b 45 20             	mov    0x20(%ebp),%eax
 80497fa:	ff d0                	call   *%eax
 80497fc:	8b 45 1c             	mov    0x1c(%ebp),%eax
 80497ff:	8b 00                	mov    (%eax),%eax
 8049801:	83 e0 10             	and    $0x10,%eax
 8049804:	85 c0                	test   %eax,%eax
 8049806:	74 3e                	je     8049846 <format_integer+0x324>
 8049808:	8b 45 dc             	mov    -0x24(%ebp),%eax
 804980b:	8b 55 24             	mov    0x24(%ebp),%edx
 804980e:	89 54 24 0c          	mov    %edx,0xc(%esp)
 8049812:	8b 55 20             	mov    0x20(%ebp),%edx
 8049815:	89 54 24 08          	mov    %edx,0x8(%esp)
 8049819:	89 44 24 04          	mov    %eax,0x4(%esp)
 804981d:	c7 04 24 30 00 00 00 	movl   $0x30,(%esp)
 8049824:	e8 5e 00 00 00       	call   8049887 <output_dup>
 8049829:	eb 1b                	jmp    8049846 <format_integer+0x324>
 804982b:	ff 4d e4             	decl   -0x1c(%ebp)
 804982e:	8b 45 e4             	mov    -0x1c(%ebp),%eax
 8049831:	0f b6 00             	movzbl (%eax),%eax
 8049834:	0f be c0             	movsbl %al,%eax
 8049837:	8b 55 24             	mov    0x24(%ebp),%edx
 804983a:	89 54 24 04          	mov    %edx,0x4(%esp)
 804983e:	89 04 24             	mov    %eax,(%esp)
 8049841:	8b 45 20             	mov    0x20(%ebp),%eax
 8049844:	ff d0                	call   *%eax
 8049846:	8d 45 90             	lea    -0x70(%ebp),%eax
 8049849:	39 45 e4             	cmp    %eax,-0x1c(%ebp)
 804984c:	77 dd                	ja     804982b <format_integer+0x309>
 804984e:	8b 45 1c             	mov    0x1c(%ebp),%eax
 8049851:	8b 00                	mov    (%eax),%eax
 8049853:	83 e0 01             	and    $0x1,%eax
 8049856:	85 c0                	test   %eax,%eax
 8049858:	74 21                	je     804987b <format_integer+0x359>
 804985a:	8b 45 dc             	mov    -0x24(%ebp),%eax
 804985d:	8b 55 24             	mov    0x24(%ebp),%edx
 8049860:	89 54 24 0c          	mov    %edx,0xc(%esp)
 8049864:	8b 55 20             	mov    0x20(%ebp),%edx
 8049867:	89 54 24 08          	mov    %edx,0x8(%esp)
 804986b:	89 44 24 04          	mov    %eax,0x4(%esp)
 804986f:	c7 04 24 20 00 00 00 	movl   $0x20,(%esp)
 8049876:	e8 0c 00 00 00       	call   8049887 <output_dup>
 804987b:	90                   	nop
 804987c:	81 c4 9c 00 00 00    	add    $0x9c,%esp
 8049882:	5b                   	pop    %ebx
 8049883:	5e                   	pop    %esi
 8049884:	5f                   	pop    %edi
 8049885:	5d                   	pop    %ebp
 8049886:	c3                   	ret    

08049887 <output_dup>:
 8049887:	55                   	push   %ebp
 8049888:	89 e5                	mov    %esp,%ebp
 804988a:	83 ec 28             	sub    $0x28,%esp
 804988d:	8b 45 08             	mov    0x8(%ebp),%eax
 8049890:	88 45 f4             	mov    %al,-0xc(%ebp)
 8049893:	eb 13                	jmp    80498a8 <output_dup+0x21>
 8049895:	0f be 45 f4          	movsbl -0xc(%ebp),%eax
 8049899:	8b 55 14             	mov    0x14(%ebp),%edx
 804989c:	89 54 24 04          	mov    %edx,0x4(%esp)
 80498a0:	89 04 24             	mov    %eax,(%esp)
 80498a3:	8b 45 10             	mov    0x10(%ebp),%eax
 80498a6:	ff d0                	call   *%eax
 80498a8:	8b 45 0c             	mov    0xc(%ebp),%eax
 80498ab:	8d 50 ff             	lea    -0x1(%eax),%edx
 80498ae:	89 55 0c             	mov    %edx,0xc(%ebp)
 80498b1:	85 c0                	test   %eax,%eax
 80498b3:	75 e0                	jne    8049895 <output_dup+0xe>
 80498b5:	90                   	nop
 80498b6:	c9                   	leave  
 80498b7:	c3                   	ret    

080498b8 <format_string>:
 80498b8:	55                   	push   %ebp
 80498b9:	89 e5                	mov    %esp,%ebp
 80498bb:	83 ec 28             	sub    $0x28,%esp
 80498be:	8b 45 10             	mov    0x10(%ebp),%eax
 80498c1:	8b 40 04             	mov    0x4(%eax),%eax
 80498c4:	39 45 0c             	cmp    %eax,0xc(%ebp)
 80498c7:	7d 35                	jge    80498fe <format_string+0x46>
 80498c9:	8b 45 10             	mov    0x10(%ebp),%eax
 80498cc:	8b 00                	mov    (%eax),%eax
 80498ce:	83 e0 01             	and    $0x1,%eax
 80498d1:	85 c0                	test   %eax,%eax
 80498d3:	75 29                	jne    80498fe <format_string+0x46>
 80498d5:	8b 45 10             	mov    0x10(%ebp),%eax
 80498d8:	8b 40 04             	mov    0x4(%eax),%eax
 80498db:	2b 45 0c             	sub    0xc(%ebp),%eax
 80498de:	89 c2                	mov    %eax,%edx
 80498e0:	8b 45 18             	mov    0x18(%ebp),%eax
 80498e3:	89 44 24 0c          	mov    %eax,0xc(%esp)
 80498e7:	8b 45 14             	mov    0x14(%ebp),%eax
 80498ea:	89 44 24 08          	mov    %eax,0x8(%esp)
 80498ee:	89 54 24 04          	mov    %edx,0x4(%esp)
 80498f2:	c7 04 24 20 00 00 00 	movl   $0x20,(%esp)
 80498f9:	e8 89 ff ff ff       	call   8049887 <output_dup>
 80498fe:	c7 45 f4 00 00 00 00 	movl   $0x0,-0xc(%ebp)
 8049905:	eb 20                	jmp    8049927 <format_string+0x6f>
 8049907:	8b 55 f4             	mov    -0xc(%ebp),%edx
 804990a:	8b 45 08             	mov    0x8(%ebp),%eax
 804990d:	01 d0                	add    %edx,%eax
 804990f:	0f b6 00             	movzbl (%eax),%eax
 8049912:	0f be c0             	movsbl %al,%eax
 8049915:	8b 55 18             	mov    0x18(%ebp),%edx
 8049918:	89 54 24 04          	mov    %edx,0x4(%esp)
 804991c:	89 04 24             	mov    %eax,(%esp)
 804991f:	8b 45 14             	mov    0x14(%ebp),%eax
 8049922:	ff d0                	call   *%eax
 8049924:	ff 45 f4             	incl   -0xc(%ebp)
 8049927:	8b 45 f4             	mov    -0xc(%ebp),%eax
 804992a:	3b 45 0c             	cmp    0xc(%ebp),%eax
 804992d:	7c d8                	jl     8049907 <format_string+0x4f>
 804992f:	8b 45 10             	mov    0x10(%ebp),%eax
 8049932:	8b 40 04             	mov    0x4(%eax),%eax
 8049935:	39 45 0c             	cmp    %eax,0xc(%ebp)
 8049938:	7d 35                	jge    804996f <format_string+0xb7>
 804993a:	8b 45 10             	mov    0x10(%ebp),%eax
 804993d:	8b 00                	mov    (%eax),%eax
 804993f:	83 e0 01             	and    $0x1,%eax
 8049942:	85 c0                	test   %eax,%eax
 8049944:	74 29                	je     804996f <format_string+0xb7>
 8049946:	8b 45 10             	mov    0x10(%ebp),%eax
 8049949:	8b 40 04             	mov    0x4(%eax),%eax
 804994c:	2b 45 0c             	sub    0xc(%ebp),%eax
 804994f:	89 c2                	mov    %eax,%edx
 8049951:	8b 45 18             	mov    0x18(%ebp),%eax
 8049954:	89 44 24 0c          	mov    %eax,0xc(%esp)
 8049958:	8b 45 14             	mov    0x14(%ebp),%eax
 804995b:	89 44 24 08          	mov    %eax,0x8(%esp)
 804995f:	89 54 24 04          	mov    %edx,0x4(%esp)
 8049963:	c7 04 24 20 00 00 00 	movl   $0x20,(%esp)
 804996a:	e8 18 ff ff ff       	call   8049887 <output_dup>
 804996f:	90                   	nop
 8049970:	c9                   	leave  
 8049971:	c3                   	ret    

08049972 <__printf>:
 8049972:	55                   	push   %ebp
 8049973:	89 e5                	mov    %esp,%ebp
 8049975:	83 ec 28             	sub    $0x28,%esp
 8049978:	8d 45 14             	lea    0x14(%ebp),%eax
 804997b:	89 45 f4             	mov    %eax,-0xc(%ebp)
 804997e:	8b 45 f4             	mov    -0xc(%ebp),%eax
 8049981:	8b 55 10             	mov    0x10(%ebp),%edx
 8049984:	89 54 24 0c          	mov    %edx,0xc(%esp)
 8049988:	8b 55 0c             	mov    0xc(%ebp),%edx
 804998b:	89 54 24 08          	mov    %edx,0x8(%esp)
 804998f:	89 44 24 04          	mov    %eax,0x4(%esp)
 8049993:	8b 45 08             	mov    0x8(%ebp),%eax
 8049996:	89 04 24             	mov    %eax,(%esp)
 8049999:	e8 50 f2 ff ff       	call   8048bee <__vprintf>
 804999e:	90                   	nop
 804999f:	c9                   	leave  
 80499a0:	c3                   	ret    

080499a1 <hex_dump>:
 80499a1:	55                   	push   %ebp
 80499a2:	89 e5                	mov    %esp,%ebp
 80499a4:	83 ec 48             	sub    $0x48,%esp
 80499a7:	8b 45 14             	mov    0x14(%ebp),%eax
 80499aa:	88 45 d4             	mov    %al,-0x2c(%ebp)
 80499ad:	8b 45 0c             	mov    0xc(%ebp),%eax
 80499b0:	89 45 f4             	mov    %eax,-0xc(%ebp)
 80499b3:	c7 45 e8 10 00 00 00 	movl   $0x10,-0x18(%ebp)
 80499ba:	e9 a6 01 00 00       	jmp    8049b65 <hex_dump+0x1c4>
 80499bf:	8b 45 08             	mov    0x8(%ebp),%eax
 80499c2:	ba 00 00 00 00       	mov    $0x0,%edx
 80499c7:	f7 75 e8             	divl   -0x18(%ebp)
 80499ca:	89 55 e4             	mov    %edx,-0x1c(%ebp)
 80499cd:	8b 45 e8             	mov    -0x18(%ebp),%eax
 80499d0:	89 45 f0             	mov    %eax,-0x10(%ebp)
 80499d3:	8b 45 f0             	mov    -0x10(%ebp),%eax
 80499d6:	2b 45 e4             	sub    -0x1c(%ebp),%eax
 80499d9:	39 45 10             	cmp    %eax,0x10(%ebp)
 80499dc:	73 0b                	jae    80499e9 <hex_dump+0x48>
 80499de:	8b 55 e4             	mov    -0x1c(%ebp),%edx
 80499e1:	8b 45 10             	mov    0x10(%ebp),%eax
 80499e4:	01 d0                	add    %edx,%eax
 80499e6:	89 45 f0             	mov    %eax,-0x10(%ebp)
 80499e9:	8b 45 f0             	mov    -0x10(%ebp),%eax
 80499ec:	2b 45 e4             	sub    -0x1c(%ebp),%eax
 80499ef:	89 45 e0             	mov    %eax,-0x20(%ebp)
 80499f2:	8b 45 08             	mov    0x8(%ebp),%eax
 80499f5:	ba 00 00 00 00       	mov    $0x0,%edx
 80499fa:	f7 75 e8             	divl   -0x18(%ebp)
 80499fd:	0f af 45 e8          	imul   -0x18(%ebp),%eax
 8049a01:	ba 00 00 00 00       	mov    $0x0,%edx
 8049a06:	89 44 24 04          	mov    %eax,0x4(%esp)
 8049a0a:	89 54 24 08          	mov    %edx,0x8(%esp)
 8049a0e:	c7 04 24 30 b6 04 08 	movl   $0x804b630,(%esp)
 8049a15:	e8 ae f1 ff ff       	call   8048bc8 <printf>
 8049a1a:	c7 45 ec 00 00 00 00 	movl   $0x0,-0x14(%ebp)
 8049a21:	eb 0f                	jmp    8049a32 <hex_dump+0x91>
 8049a23:	c7 04 24 38 b6 04 08 	movl   $0x804b638,(%esp)
 8049a2a:	e8 99 f1 ff ff       	call   8048bc8 <printf>
 8049a2f:	ff 45 ec             	incl   -0x14(%ebp)
 8049a32:	8b 45 ec             	mov    -0x14(%ebp),%eax
 8049a35:	3b 45 e4             	cmp    -0x1c(%ebp),%eax
 8049a38:	72 e9                	jb     8049a23 <hex_dump+0x82>
 8049a3a:	eb 41                	jmp    8049a7d <hex_dump+0xdc>
 8049a3c:	8b 45 e8             	mov    -0x18(%ebp),%eax
 8049a3f:	d1 e8                	shr    %eax
 8049a41:	48                   	dec    %eax
 8049a42:	39 45 ec             	cmp    %eax,-0x14(%ebp)
 8049a45:	75 07                	jne    8049a4e <hex_dump+0xad>
 8049a47:	ba 2d 00 00 00       	mov    $0x2d,%edx
 8049a4c:	eb 05                	jmp    8049a53 <hex_dump+0xb2>
 8049a4e:	ba 20 00 00 00       	mov    $0x20,%edx
 8049a53:	8b 45 ec             	mov    -0x14(%ebp),%eax
 8049a56:	2b 45 e4             	sub    -0x1c(%ebp),%eax
 8049a59:	89 c1                	mov    %eax,%ecx
 8049a5b:	8b 45 f4             	mov    -0xc(%ebp),%eax
 8049a5e:	01 c8                	add    %ecx,%eax
 8049a60:	0f b6 00             	movzbl (%eax),%eax
 8049a63:	0f b6 c0             	movzbl %al,%eax
 8049a66:	89 54 24 08          	mov    %edx,0x8(%esp)
 8049a6a:	89 44 24 04          	mov    %eax,0x4(%esp)
 8049a6e:	c7 04 24 3c b6 04 08 	movl   $0x804b63c,(%esp)
 8049a75:	e8 4e f1 ff ff       	call   8048bc8 <printf>
 8049a7a:	ff 45 ec             	incl   -0x14(%ebp)
 8049a7d:	8b 45 ec             	mov    -0x14(%ebp),%eax
 8049a80:	3b 45 f0             	cmp    -0x10(%ebp),%eax
 8049a83:	72 b7                	jb     8049a3c <hex_dump+0x9b>
 8049a85:	80 7d d4 00          	cmpb   $0x0,-0x2c(%ebp)
 8049a89:	0f 84 b8 00 00 00    	je     8049b47 <hex_dump+0x1a6>
 8049a8f:	eb 0f                	jmp    8049aa0 <hex_dump+0xff>
 8049a91:	c7 04 24 38 b6 04 08 	movl   $0x804b638,(%esp)
 8049a98:	e8 2b f1 ff ff       	call   8048bc8 <printf>
 8049a9d:	ff 45 ec             	incl   -0x14(%ebp)
 8049aa0:	8b 45 ec             	mov    -0x14(%ebp),%eax
 8049aa3:	3b 45 e8             	cmp    -0x18(%ebp),%eax
 8049aa6:	72 e9                	jb     8049a91 <hex_dump+0xf0>
 8049aa8:	c7 04 24 7c 00 00 00 	movl   $0x7c,(%esp)
 8049aaf:	e8 e7 14 00 00       	call   804af9b <putchar>
 8049ab4:	c7 45 ec 00 00 00 00 	movl   $0x0,-0x14(%ebp)
 8049abb:	eb 0f                	jmp    8049acc <hex_dump+0x12b>
 8049abd:	c7 04 24 20 00 00 00 	movl   $0x20,(%esp)
 8049ac4:	e8 d2 14 00 00       	call   804af9b <putchar>
 8049ac9:	ff 45 ec             	incl   -0x14(%ebp)
 8049acc:	8b 45 ec             	mov    -0x14(%ebp),%eax
 8049acf:	3b 45 e4             	cmp    -0x1c(%ebp),%eax
 8049ad2:	72 e9                	jb     8049abd <hex_dump+0x11c>
 8049ad4:	eb 44                	jmp    8049b1a <hex_dump+0x179>
 8049ad6:	8b 45 ec             	mov    -0x14(%ebp),%eax
 8049ad9:	2b 45 e4             	sub    -0x1c(%ebp),%eax
 8049adc:	89 c2                	mov    %eax,%edx
 8049ade:	8b 45 f4             	mov    -0xc(%ebp),%eax
 8049ae1:	01 d0                	add    %edx,%eax
 8049ae3:	0f b6 00             	movzbl (%eax),%eax
 8049ae6:	0f b6 c0             	movzbl %al,%eax
 8049ae9:	89 04 24             	mov    %eax,(%esp)
 8049aec:	e8 ec ef ff ff       	call   8048add <isprint>
 8049af1:	85 c0                	test   %eax,%eax
 8049af3:	74 15                	je     8049b0a <hex_dump+0x169>
 8049af5:	8b 45 ec             	mov    -0x14(%ebp),%eax
 8049af8:	2b 45 e4             	sub    -0x1c(%ebp),%eax
 8049afb:	89 c2                	mov    %eax,%edx
 8049afd:	8b 45 f4             	mov    -0xc(%ebp),%eax
 8049b00:	01 d0                	add    %edx,%eax
 8049b02:	0f b6 00             	movzbl (%eax),%eax
 8049b05:	0f b6 c0             	movzbl %al,%eax
 8049b08:	eb 05                	jmp    8049b0f <hex_dump+0x16e>
 8049b0a:	b8 2e 00 00 00       	mov    $0x2e,%eax
 8049b0f:	89 04 24             	mov    %eax,(%esp)
 8049b12:	e8 84 14 00 00       	call   804af9b <putchar>
 8049b17:	ff 45 ec             	incl   -0x14(%ebp)
 8049b1a:	8b 45 ec             	mov    -0x14(%ebp),%eax
 8049b1d:	3b 45 f0             	cmp    -0x10(%ebp),%eax
 8049b20:	72 b4                	jb     8049ad6 <hex_dump+0x135>
 8049b22:	eb 0f                	jmp    8049b33 <hex_dump+0x192>
 8049b24:	c7 04 24 20 00 00 00 	movl   $0x20,(%esp)
 8049b2b:	e8 6b 14 00 00       	call   804af9b <putchar>
 8049b30:	ff 45 ec             	incl   -0x14(%ebp)
 8049b33:	8b 45 ec             	mov    -0x14(%ebp),%eax
 8049b36:	3b 45 e8             	cmp    -0x18(%ebp),%eax
 8049b39:	72 e9                	jb     8049b24 <hex_dump+0x183>
 8049b3b:	c7 04 24 7c 00 00 00 	movl   $0x7c,(%esp)
 8049b42:	e8 54 14 00 00       	call   804af9b <putchar>
 8049b47:	c7 04 24 0a 00 00 00 	movl   $0xa,(%esp)
 8049b4e:	e8 48 14 00 00       	call   804af9b <putchar>
 8049b53:	8b 45 e0             	mov    -0x20(%ebp),%eax
 8049b56:	01 45 08             	add    %eax,0x8(%ebp)
 8049b59:	8b 45 e0             	mov    -0x20(%ebp),%eax
 8049b5c:	01 45 f4             	add    %eax,-0xc(%ebp)
 8049b5f:	8b 45 e0             	mov    -0x20(%ebp),%eax
 8049b62:	29 45 10             	sub    %eax,0x10(%ebp)
 8049b65:	83 7d 10 00          	cmpl   $0x0,0x10(%ebp)
 8049b69:	0f 85 50 fe ff ff    	jne    80499bf <hex_dump+0x1e>
 8049b6f:	90                   	nop
 8049b70:	c9                   	leave  
 8049b71:	c3                   	ret    

08049b72 <print_human_readable_size>:
 8049b72:	55                   	push   %ebp
 8049b73:	89 e5                	mov    %esp,%ebp
 8049b75:	53                   	push   %ebx
 8049b76:	83 ec 34             	sub    $0x34,%esp
 8049b79:	8b 4d 08             	mov    0x8(%ebp),%ecx
 8049b7c:	89 4d e0             	mov    %ecx,-0x20(%ebp)
 8049b7f:	8b 4d 0c             	mov    0xc(%ebp),%ecx
 8049b82:	89 4d e4             	mov    %ecx,-0x1c(%ebp)
 8049b85:	8b 4d e0             	mov    -0x20(%ebp),%ecx
 8049b88:	83 f1 01             	xor    $0x1,%ecx
 8049b8b:	89 c8                	mov    %ecx,%eax
 8049b8d:	8b 4d e4             	mov    -0x1c(%ebp),%ecx
 8049b90:	83 f1 00             	xor    $0x0,%ecx
 8049b93:	89 ca                	mov    %ecx,%edx
 8049b95:	09 d0                	or     %edx,%eax
 8049b97:	85 c0                	test   %eax,%eax
 8049b99:	75 0e                	jne    8049ba9 <print_human_readable_size+0x37>
 8049b9b:	c7 04 24 45 b6 04 08 	movl   $0x804b645,(%esp)
 8049ba2:	e8 21 f0 ff ff       	call   8048bc8 <printf>
 8049ba7:	eb 68                	jmp    8049c11 <print_human_readable_size+0x9f>
 8049ba9:	c7 45 f4 18 c9 04 08 	movl   $0x804c918,-0xc(%ebp)
 8049bb0:	eb 1b                	jmp    8049bcd <print_human_readable_size+0x5b>
 8049bb2:	8b 45 e0             	mov    -0x20(%ebp),%eax
 8049bb5:	8b 55 e4             	mov    -0x1c(%ebp),%edx
 8049bb8:	0f ac d0 0a          	shrd   $0xa,%edx,%eax
 8049bbc:	c1 ea 0a             	shr    $0xa,%edx
 8049bbf:	89 c1                	mov    %eax,%ecx
 8049bc1:	89 d3                	mov    %edx,%ebx
 8049bc3:	89 4d e0             	mov    %ecx,-0x20(%ebp)
 8049bc6:	89 5d e4             	mov    %ebx,-0x1c(%ebp)
 8049bc9:	83 45 f4 04          	addl   $0x4,-0xc(%ebp)
 8049bcd:	83 7d e4 00          	cmpl   $0x0,-0x1c(%ebp)
 8049bd1:	72 1b                	jb     8049bee <print_human_readable_size+0x7c>
 8049bd3:	83 7d e4 00          	cmpl   $0x0,-0x1c(%ebp)
 8049bd7:	77 09                	ja     8049be2 <print_human_readable_size+0x70>
 8049bd9:	81 7d e0 ff 03 00 00 	cmpl   $0x3ff,-0x20(%ebp)
 8049be0:	76 0c                	jbe    8049bee <print_human_readable_size+0x7c>
 8049be2:	8b 45 f4             	mov    -0xc(%ebp),%eax
 8049be5:	83 c0 04             	add    $0x4,%eax
 8049be8:	8b 00                	mov    (%eax),%eax
 8049bea:	85 c0                	test   %eax,%eax
 8049bec:	75 c4                	jne    8049bb2 <print_human_readable_size+0x40>
 8049bee:	8b 45 f4             	mov    -0xc(%ebp),%eax
 8049bf1:	8b 00                	mov    (%eax),%eax
 8049bf3:	89 44 24 0c          	mov    %eax,0xc(%esp)
 8049bf7:	8b 45 e0             	mov    -0x20(%ebp),%eax
 8049bfa:	8b 55 e4             	mov    -0x1c(%ebp),%edx
 8049bfd:	89 44 24 04          	mov    %eax,0x4(%esp)
 8049c01:	89 54 24 08          	mov    %edx,0x8(%esp)
 8049c05:	c7 04 24 4c b6 04 08 	movl   $0x804b64c,(%esp)
 8049c0c:	e8 b7 ef ff ff       	call   8048bc8 <printf>
 8049c11:	90                   	nop
 8049c12:	83 c4 34             	add    $0x34,%esp
 8049c15:	5b                   	pop    %ebx
 8049c16:	5d                   	pop    %ebp
 8049c17:	c3                   	ret    

08049c18 <memcpy>:
 8049c18:	55                   	push   %ebp
 8049c19:	89 e5                	mov    %esp,%ebp
 8049c1b:	83 ec 38             	sub    $0x38,%esp
 8049c1e:	8b 45 08             	mov    0x8(%ebp),%eax
 8049c21:	89 45 f4             	mov    %eax,-0xc(%ebp)
 8049c24:	8b 45 0c             	mov    0xc(%ebp),%eax
 8049c27:	89 45 f0             	mov    %eax,-0x10(%ebp)
 8049c2a:	83 7d f4 00          	cmpl   $0x0,-0xc(%ebp)
 8049c2e:	75 32                	jne    8049c62 <memcpy+0x4a>
 8049c30:	83 7d 10 00          	cmpl   $0x0,0x10(%ebp)
 8049c34:	74 2c                	je     8049c62 <memcpy+0x4a>
 8049c36:	c7 44 24 10 70 b6 04 	movl   $0x804b670,0x10(%esp)
 8049c3d:	08 
 8049c3e:	c7 44 24 0c 89 b6 04 	movl   $0x804b689,0xc(%esp)
 8049c45:	08 
 8049c46:	c7 44 24 08 80 b7 04 	movl   $0x804b780,0x8(%esp)
 8049c4d:	08 
 8049c4e:	c7 44 24 04 0e 00 00 	movl   $0xe,0x4(%esp)
 8049c55:	00 
 8049c56:	c7 04 24 a0 b6 04 08 	movl   $0x804b6a0,(%esp)
 8049c5d:	e8 d1 0d 00 00       	call   804aa33 <debug_panic>
 8049c62:	83 7d f0 00          	cmpl   $0x0,-0x10(%ebp)
 8049c66:	75 49                	jne    8049cb1 <memcpy+0x99>
 8049c68:	83 7d 10 00          	cmpl   $0x0,0x10(%ebp)
 8049c6c:	74 43                	je     8049cb1 <memcpy+0x99>
 8049c6e:	c7 44 24 10 b3 b6 04 	movl   $0x804b6b3,0x10(%esp)
 8049c75:	08 
 8049c76:	c7 44 24 0c 89 b6 04 	movl   $0x804b689,0xc(%esp)
 8049c7d:	08 
 8049c7e:	c7 44 24 08 80 b7 04 	movl   $0x804b780,0x8(%esp)
 8049c85:	08 
 8049c86:	c7 44 24 04 0f 00 00 	movl   $0xf,0x4(%esp)
 8049c8d:	00 
 8049c8e:	c7 04 24 a0 b6 04 08 	movl   $0x804b6a0,(%esp)
 8049c95:	e8 99 0d 00 00       	call   804aa33 <debug_panic>
 8049c9a:	8b 55 f0             	mov    -0x10(%ebp),%edx
 8049c9d:	8d 42 01             	lea    0x1(%edx),%eax
 8049ca0:	89 45 f0             	mov    %eax,-0x10(%ebp)
 8049ca3:	8b 45 f4             	mov    -0xc(%ebp),%eax
 8049ca6:	8d 48 01             	lea    0x1(%eax),%ecx
 8049ca9:	89 4d f4             	mov    %ecx,-0xc(%ebp)
 8049cac:	0f b6 12             	movzbl (%edx),%edx
 8049caf:	88 10                	mov    %dl,(%eax)
 8049cb1:	8b 45 10             	mov    0x10(%ebp),%eax
 8049cb4:	8d 50 ff             	lea    -0x1(%eax),%edx
 8049cb7:	89 55 10             	mov    %edx,0x10(%ebp)
 8049cba:	85 c0                	test   %eax,%eax
 8049cbc:	75 dc                	jne    8049c9a <memcpy+0x82>
 8049cbe:	8b 45 08             	mov    0x8(%ebp),%eax
 8049cc1:	c9                   	leave  
 8049cc2:	c3                   	ret    

08049cc3 <memmove>:
 8049cc3:	55                   	push   %ebp
 8049cc4:	89 e5                	mov    %esp,%ebp
 8049cc6:	83 ec 38             	sub    $0x38,%esp
 8049cc9:	8b 45 08             	mov    0x8(%ebp),%eax
 8049ccc:	89 45 f4             	mov    %eax,-0xc(%ebp)
 8049ccf:	8b 45 0c             	mov    0xc(%ebp),%eax
 8049cd2:	89 45 f0             	mov    %eax,-0x10(%ebp)
 8049cd5:	83 7d f4 00          	cmpl   $0x0,-0xc(%ebp)
 8049cd9:	75 32                	jne    8049d0d <memmove+0x4a>
 8049cdb:	83 7d 10 00          	cmpl   $0x0,0x10(%ebp)
 8049cdf:	74 2c                	je     8049d0d <memmove+0x4a>
 8049ce1:	c7 44 24 10 70 b6 04 	movl   $0x804b670,0x10(%esp)
 8049ce8:	08 
 8049ce9:	c7 44 24 0c 89 b6 04 	movl   $0x804b689,0xc(%esp)
 8049cf0:	08 
 8049cf1:	c7 44 24 08 88 b7 04 	movl   $0x804b788,0x8(%esp)
 8049cf8:	08 
 8049cf9:	c7 44 24 04 1d 00 00 	movl   $0x1d,0x4(%esp)
 8049d00:	00 
 8049d01:	c7 04 24 a0 b6 04 08 	movl   $0x804b6a0,(%esp)
 8049d08:	e8 26 0d 00 00       	call   804aa33 <debug_panic>
 8049d0d:	83 7d f0 00          	cmpl   $0x0,-0x10(%ebp)
 8049d11:	75 32                	jne    8049d45 <memmove+0x82>
 8049d13:	83 7d 10 00          	cmpl   $0x0,0x10(%ebp)
 8049d17:	74 2c                	je     8049d45 <memmove+0x82>
 8049d19:	c7 44 24 10 b3 b6 04 	movl   $0x804b6b3,0x10(%esp)
 8049d20:	08 
 8049d21:	c7 44 24 0c 89 b6 04 	movl   $0x804b689,0xc(%esp)
 8049d28:	08 
 8049d29:	c7 44 24 08 88 b7 04 	movl   $0x804b788,0x8(%esp)
 8049d30:	08 
 8049d31:	c7 44 24 04 1e 00 00 	movl   $0x1e,0x4(%esp)
 8049d38:	00 
 8049d39:	c7 04 24 a0 b6 04 08 	movl   $0x804b6a0,(%esp)
 8049d40:	e8 ee 0c 00 00       	call   804aa33 <debug_panic>
 8049d45:	8b 45 f4             	mov    -0xc(%ebp),%eax
 8049d48:	3b 45 f0             	cmp    -0x10(%ebp),%eax
 8049d4b:	73 28                	jae    8049d75 <memmove+0xb2>
 8049d4d:	eb 17                	jmp    8049d66 <memmove+0xa3>
 8049d4f:	8b 55 f0             	mov    -0x10(%ebp),%edx
 8049d52:	8d 42 01             	lea    0x1(%edx),%eax
 8049d55:	89 45 f0             	mov    %eax,-0x10(%ebp)
 8049d58:	8b 45 f4             	mov    -0xc(%ebp),%eax
 8049d5b:	8d 48 01             	lea    0x1(%eax),%ecx
 8049d5e:	89 4d f4             	mov    %ecx,-0xc(%ebp)
 8049d61:	0f b6 12             	movzbl (%edx),%edx
 8049d64:	88 10                	mov    %dl,(%eax)
 8049d66:	8b 45 10             	mov    0x10(%ebp),%eax
 8049d69:	8d 50 ff             	lea    -0x1(%eax),%edx
 8049d6c:	89 55 10             	mov    %edx,0x10(%ebp)
 8049d6f:	85 c0                	test   %eax,%eax
 8049d71:	75 dc                	jne    8049d4f <memmove+0x8c>
 8049d73:	eb 2c                	jmp    8049da1 <memmove+0xde>
 8049d75:	8b 45 10             	mov    0x10(%ebp),%eax
 8049d78:	01 45 f4             	add    %eax,-0xc(%ebp)
 8049d7b:	8b 45 10             	mov    0x10(%ebp),%eax
 8049d7e:	01 45 f0             	add    %eax,-0x10(%ebp)
 8049d81:	eb 11                	jmp    8049d94 <memmove+0xd1>
 8049d83:	ff 4d f0             	decl   -0x10(%ebp)
 8049d86:	ff 4d f4             	decl   -0xc(%ebp)
 8049d89:	8b 45 f0             	mov    -0x10(%ebp),%eax
 8049d8c:	0f b6 10             	movzbl (%eax),%edx
 8049d8f:	8b 45 f4             	mov    -0xc(%ebp),%eax
 8049d92:	88 10                	mov    %dl,(%eax)
 8049d94:	8b 45 10             	mov    0x10(%ebp),%eax
 8049d97:	8d 50 ff             	lea    -0x1(%eax),%edx
 8049d9a:	89 55 10             	mov    %edx,0x10(%ebp)
 8049d9d:	85 c0                	test   %eax,%eax
 8049d9f:	75 e2                	jne    8049d83 <memmove+0xc0>
 8049da1:	8b 45 f4             	mov    -0xc(%ebp),%eax
 8049da4:	c9                   	leave  
 8049da5:	c3                   	ret    

08049da6 <memcmp>:
 8049da6:	55                   	push   %ebp
 8049da7:	89 e5                	mov    %esp,%ebp
 8049da9:	83 ec 38             	sub    $0x38,%esp
 8049dac:	8b 45 08             	mov    0x8(%ebp),%eax
 8049daf:	89 45 f4             	mov    %eax,-0xc(%ebp)
 8049db2:	8b 45 0c             	mov    0xc(%ebp),%eax
 8049db5:	89 45 f0             	mov    %eax,-0x10(%ebp)
 8049db8:	83 7d f4 00          	cmpl   $0x0,-0xc(%ebp)
 8049dbc:	75 32                	jne    8049df0 <memcmp+0x4a>
 8049dbe:	83 7d 10 00          	cmpl   $0x0,0x10(%ebp)
 8049dc2:	74 2c                	je     8049df0 <memcmp+0x4a>
 8049dc4:	c7 44 24 10 cc b6 04 	movl   $0x804b6cc,0x10(%esp)
 8049dcb:	08 
 8049dcc:	c7 44 24 0c 89 b6 04 	movl   $0x804b689,0xc(%esp)
 8049dd3:	08 
 8049dd4:	c7 44 24 08 90 b7 04 	movl   $0x804b790,0x8(%esp)
 8049ddb:	08 
 8049ddc:	c7 44 24 04 35 00 00 	movl   $0x35,0x4(%esp)
 8049de3:	00 
 8049de4:	c7 04 24 a0 b6 04 08 	movl   $0x804b6a0,(%esp)
 8049deb:	e8 43 0c 00 00       	call   804aa33 <debug_panic>
 8049df0:	83 7d f0 00          	cmpl   $0x0,-0x10(%ebp)
 8049df4:	75 66                	jne    8049e5c <memcmp+0xb6>
 8049df6:	83 7d 10 00          	cmpl   $0x0,0x10(%ebp)
 8049dfa:	74 60                	je     8049e5c <memcmp+0xb6>
 8049dfc:	c7 44 24 10 e3 b6 04 	movl   $0x804b6e3,0x10(%esp)
 8049e03:	08 
 8049e04:	c7 44 24 0c 89 b6 04 	movl   $0x804b689,0xc(%esp)
 8049e0b:	08 
 8049e0c:	c7 44 24 08 90 b7 04 	movl   $0x804b790,0x8(%esp)
 8049e13:	08 
 8049e14:	c7 44 24 04 36 00 00 	movl   $0x36,0x4(%esp)
 8049e1b:	00 
 8049e1c:	c7 04 24 a0 b6 04 08 	movl   $0x804b6a0,(%esp)
 8049e23:	e8 0b 0c 00 00       	call   804aa33 <debug_panic>
 8049e28:	8b 45 f4             	mov    -0xc(%ebp),%eax
 8049e2b:	0f b6 10             	movzbl (%eax),%edx
 8049e2e:	8b 45 f0             	mov    -0x10(%ebp),%eax
 8049e31:	0f b6 00             	movzbl (%eax),%eax
 8049e34:	38 c2                	cmp    %al,%dl
 8049e36:	74 1e                	je     8049e56 <memcmp+0xb0>
 8049e38:	8b 45 f4             	mov    -0xc(%ebp),%eax
 8049e3b:	0f b6 10             	movzbl (%eax),%edx
 8049e3e:	8b 45 f0             	mov    -0x10(%ebp),%eax
 8049e41:	0f b6 00             	movzbl (%eax),%eax
 8049e44:	38 c2                	cmp    %al,%dl
 8049e46:	76 07                	jbe    8049e4f <memcmp+0xa9>
 8049e48:	b8 01 00 00 00       	mov    $0x1,%eax
 8049e4d:	eb 1f                	jmp    8049e6e <memcmp+0xc8>
 8049e4f:	b8 ff ff ff ff       	mov    $0xffffffff,%eax
 8049e54:	eb 18                	jmp    8049e6e <memcmp+0xc8>
 8049e56:	ff 45 f4             	incl   -0xc(%ebp)
 8049e59:	ff 45 f0             	incl   -0x10(%ebp)
 8049e5c:	8b 45 10             	mov    0x10(%ebp),%eax
 8049e5f:	8d 50 ff             	lea    -0x1(%eax),%edx
 8049e62:	89 55 10             	mov    %edx,0x10(%ebp)
 8049e65:	85 c0                	test   %eax,%eax
 8049e67:	75 bf                	jne    8049e28 <memcmp+0x82>
 8049e69:	b8 00 00 00 00       	mov    $0x0,%eax
 8049e6e:	c9                   	leave  
 8049e6f:	c3                   	ret    

08049e70 <strcmp>:
 8049e70:	55                   	push   %ebp
 8049e71:	89 e5                	mov    %esp,%ebp
 8049e73:	83 ec 38             	sub    $0x38,%esp
 8049e76:	8b 45 08             	mov    0x8(%ebp),%eax
 8049e79:	89 45 f4             	mov    %eax,-0xc(%ebp)
 8049e7c:	8b 45 0c             	mov    0xc(%ebp),%eax
 8049e7f:	89 45 f0             	mov    %eax,-0x10(%ebp)
 8049e82:	83 7d f4 00          	cmpl   $0x0,-0xc(%ebp)
 8049e86:	75 2c                	jne    8049eb4 <strcmp+0x44>
 8049e88:	c7 44 24 10 fa b6 04 	movl   $0x804b6fa,0x10(%esp)
 8049e8f:	08 
 8049e90:	c7 44 24 0c 89 b6 04 	movl   $0x804b689,0xc(%esp)
 8049e97:	08 
 8049e98:	c7 44 24 08 98 b7 04 	movl   $0x804b798,0x8(%esp)
 8049e9f:	08 
 8049ea0:	c7 44 24 04 47 00 00 	movl   $0x47,0x4(%esp)
 8049ea7:	00 
 8049ea8:	c7 04 24 a0 b6 04 08 	movl   $0x804b6a0,(%esp)
 8049eaf:	e8 7f 0b 00 00       	call   804aa33 <debug_panic>
 8049eb4:	83 7d f0 00          	cmpl   $0x0,-0x10(%ebp)
 8049eb8:	75 32                	jne    8049eec <strcmp+0x7c>
 8049eba:	c7 44 24 10 04 b7 04 	movl   $0x804b704,0x10(%esp)
 8049ec1:	08 
 8049ec2:	c7 44 24 0c 89 b6 04 	movl   $0x804b689,0xc(%esp)
 8049ec9:	08 
 8049eca:	c7 44 24 08 98 b7 04 	movl   $0x804b798,0x8(%esp)
 8049ed1:	08 
 8049ed2:	c7 44 24 04 48 00 00 	movl   $0x48,0x4(%esp)
 8049ed9:	00 
 8049eda:	c7 04 24 a0 b6 04 08 	movl   $0x804b6a0,(%esp)
 8049ee1:	e8 4d 0b 00 00       	call   804aa33 <debug_panic>
 8049ee6:	ff 45 f4             	incl   -0xc(%ebp)
 8049ee9:	ff 45 f0             	incl   -0x10(%ebp)
 8049eec:	8b 45 f4             	mov    -0xc(%ebp),%eax
 8049eef:	0f b6 00             	movzbl (%eax),%eax
 8049ef2:	84 c0                	test   %al,%al
 8049ef4:	74 10                	je     8049f06 <strcmp+0x96>
 8049ef6:	8b 45 f4             	mov    -0xc(%ebp),%eax
 8049ef9:	0f b6 10             	movzbl (%eax),%edx
 8049efc:	8b 45 f0             	mov    -0x10(%ebp),%eax
 8049eff:	0f b6 00             	movzbl (%eax),%eax
 8049f02:	38 c2                	cmp    %al,%dl
 8049f04:	74 e0                	je     8049ee6 <strcmp+0x76>
 8049f06:	8b 45 f4             	mov    -0xc(%ebp),%eax
 8049f09:	0f b6 10             	movzbl (%eax),%edx
 8049f0c:	8b 45 f0             	mov    -0x10(%ebp),%eax
 8049f0f:	0f b6 00             	movzbl (%eax),%eax
 8049f12:	38 c2                	cmp    %al,%dl
 8049f14:	72 16                	jb     8049f2c <strcmp+0xbc>
 8049f16:	8b 45 f4             	mov    -0xc(%ebp),%eax
 8049f19:	0f b6 10             	movzbl (%eax),%edx
 8049f1c:	8b 45 f0             	mov    -0x10(%ebp),%eax
 8049f1f:	0f b6 00             	movzbl (%eax),%eax
 8049f22:	38 c2                	cmp    %al,%dl
 8049f24:	0f 97 c0             	seta   %al
 8049f27:	0f b6 c0             	movzbl %al,%eax
 8049f2a:	eb 05                	jmp    8049f31 <strcmp+0xc1>
 8049f2c:	b8 ff ff ff ff       	mov    $0xffffffff,%eax
 8049f31:	c9                   	leave  
 8049f32:	c3                   	ret    

08049f33 <memchr>:
 8049f33:	55                   	push   %ebp
 8049f34:	89 e5                	mov    %esp,%ebp
 8049f36:	83 ec 38             	sub    $0x38,%esp
 8049f39:	8b 45 08             	mov    0x8(%ebp),%eax
 8049f3c:	89 45 f4             	mov    %eax,-0xc(%ebp)
 8049f3f:	8b 45 0c             	mov    0xc(%ebp),%eax
 8049f42:	88 45 f3             	mov    %al,-0xd(%ebp)
 8049f45:	83 7d f4 00          	cmpl   $0x0,-0xc(%ebp)
 8049f49:	75 45                	jne    8049f90 <memchr+0x5d>
 8049f4b:	83 7d 10 00          	cmpl   $0x0,0x10(%ebp)
 8049f4f:	74 3f                	je     8049f90 <memchr+0x5d>
 8049f51:	c7 44 24 10 0e b7 04 	movl   $0x804b70e,0x10(%esp)
 8049f58:	08 
 8049f59:	c7 44 24 0c 89 b6 04 	movl   $0x804b689,0xc(%esp)
 8049f60:	08 
 8049f61:	c7 44 24 08 a0 b7 04 	movl   $0x804b7a0,0x8(%esp)
 8049f68:	08 
 8049f69:	c7 44 24 04 59 00 00 	movl   $0x59,0x4(%esp)
 8049f70:	00 
 8049f71:	c7 04 24 a0 b6 04 08 	movl   $0x804b6a0,(%esp)
 8049f78:	e8 b6 0a 00 00       	call   804aa33 <debug_panic>
 8049f7d:	8b 45 f4             	mov    -0xc(%ebp),%eax
 8049f80:	0f b6 00             	movzbl (%eax),%eax
 8049f83:	38 45 f3             	cmp    %al,-0xd(%ebp)
 8049f86:	75 05                	jne    8049f8d <memchr+0x5a>
 8049f88:	8b 45 f4             	mov    -0xc(%ebp),%eax
 8049f8b:	eb 15                	jmp    8049fa2 <memchr+0x6f>
 8049f8d:	ff 45 f4             	incl   -0xc(%ebp)
 8049f90:	8b 45 10             	mov    0x10(%ebp),%eax
 8049f93:	8d 50 ff             	lea    -0x1(%eax),%edx
 8049f96:	89 55 10             	mov    %edx,0x10(%ebp)
 8049f99:	85 c0                	test   %eax,%eax
 8049f9b:	75 e0                	jne    8049f7d <memchr+0x4a>
 8049f9d:	b8 00 00 00 00       	mov    $0x0,%eax
 8049fa2:	c9                   	leave  
 8049fa3:	c3                   	ret    

08049fa4 <strchr>:
 8049fa4:	55                   	push   %ebp
 8049fa5:	89 e5                	mov    %esp,%ebp
 8049fa7:	83 ec 38             	sub    $0x38,%esp
 8049faa:	8b 45 0c             	mov    0xc(%ebp),%eax
 8049fad:	88 45 f7             	mov    %al,-0x9(%ebp)
 8049fb0:	83 7d 08 00          	cmpl   $0x0,0x8(%ebp)
 8049fb4:	75 2c                	jne    8049fe2 <strchr+0x3e>
 8049fb6:	c7 44 24 10 29 b7 04 	movl   $0x804b729,0x10(%esp)
 8049fbd:	08 
 8049fbe:	c7 44 24 0c 89 b6 04 	movl   $0x804b689,0xc(%esp)
 8049fc5:	08 
 8049fc6:	c7 44 24 08 a8 b7 04 	movl   $0x804b7a8,0x8(%esp)
 8049fcd:	08 
 8049fce:	c7 44 24 04 69 00 00 	movl   $0x69,0x4(%esp)
 8049fd5:	00 
 8049fd6:	c7 04 24 a0 b6 04 08 	movl   $0x804b6a0,(%esp)
 8049fdd:	e8 51 0a 00 00       	call   804aa33 <debug_panic>
 8049fe2:	8b 45 08             	mov    0x8(%ebp),%eax
 8049fe5:	0f b6 00             	movzbl (%eax),%eax
 8049fe8:	38 45 f7             	cmp    %al,-0x9(%ebp)
 8049feb:	75 05                	jne    8049ff2 <strchr+0x4e>
 8049fed:	8b 45 08             	mov    0x8(%ebp),%eax
 8049ff0:	eb 16                	jmp    804a008 <strchr+0x64>
 8049ff2:	8b 45 08             	mov    0x8(%ebp),%eax
 8049ff5:	0f b6 00             	movzbl (%eax),%eax
 8049ff8:	84 c0                	test   %al,%al
 8049ffa:	75 07                	jne    804a003 <strchr+0x5f>
 8049ffc:	b8 00 00 00 00       	mov    $0x0,%eax
 804a001:	eb 05                	jmp    804a008 <strchr+0x64>
 804a003:	ff 45 08             	incl   0x8(%ebp)
 804a006:	eb da                	jmp    8049fe2 <strchr+0x3e>
 804a008:	c9                   	leave  
 804a009:	c3                   	ret    

0804a00a <strcspn>:
 804a00a:	55                   	push   %ebp
 804a00b:	89 e5                	mov    %esp,%ebp
 804a00d:	83 ec 28             	sub    $0x28,%esp
 804a010:	c7 45 f4 00 00 00 00 	movl   $0x0,-0xc(%ebp)
 804a017:	eb 24                	jmp    804a03d <strcspn+0x33>
 804a019:	8b 55 08             	mov    0x8(%ebp),%edx
 804a01c:	8b 45 f4             	mov    -0xc(%ebp),%eax
 804a01f:	01 d0                	add    %edx,%eax
 804a021:	0f b6 00             	movzbl (%eax),%eax
 804a024:	0f be c0             	movsbl %al,%eax
 804a027:	89 44 24 04          	mov    %eax,0x4(%esp)
 804a02b:	8b 45 0c             	mov    0xc(%ebp),%eax
 804a02e:	89 04 24             	mov    %eax,(%esp)
 804a031:	e8 6e ff ff ff       	call   8049fa4 <strchr>
 804a036:	85 c0                	test   %eax,%eax
 804a038:	75 14                	jne    804a04e <strcspn+0x44>
 804a03a:	ff 45 f4             	incl   -0xc(%ebp)
 804a03d:	8b 55 08             	mov    0x8(%ebp),%edx
 804a040:	8b 45 f4             	mov    -0xc(%ebp),%eax
 804a043:	01 d0                	add    %edx,%eax
 804a045:	0f b6 00             	movzbl (%eax),%eax
 804a048:	84 c0                	test   %al,%al
 804a04a:	75 cd                	jne    804a019 <strcspn+0xf>
 804a04c:	eb 01                	jmp    804a04f <strcspn+0x45>
 804a04e:	90                   	nop
 804a04f:	8b 45 f4             	mov    -0xc(%ebp),%eax
 804a052:	c9                   	leave  
 804a053:	c3                   	ret    

0804a054 <strpbrk>:
 804a054:	55                   	push   %ebp
 804a055:	89 e5                	mov    %esp,%ebp
 804a057:	83 ec 18             	sub    $0x18,%esp
 804a05a:	eb 24                	jmp    804a080 <strpbrk+0x2c>
 804a05c:	8b 45 08             	mov    0x8(%ebp),%eax
 804a05f:	0f b6 00             	movzbl (%eax),%eax
 804a062:	0f be c0             	movsbl %al,%eax
 804a065:	89 44 24 04          	mov    %eax,0x4(%esp)
 804a069:	8b 45 0c             	mov    0xc(%ebp),%eax
 804a06c:	89 04 24             	mov    %eax,(%esp)
 804a06f:	e8 30 ff ff ff       	call   8049fa4 <strchr>
 804a074:	85 c0                	test   %eax,%eax
 804a076:	74 05                	je     804a07d <strpbrk+0x29>
 804a078:	8b 45 08             	mov    0x8(%ebp),%eax
 804a07b:	eb 12                	jmp    804a08f <strpbrk+0x3b>
 804a07d:	ff 45 08             	incl   0x8(%ebp)
 804a080:	8b 45 08             	mov    0x8(%ebp),%eax
 804a083:	0f b6 00             	movzbl (%eax),%eax
 804a086:	84 c0                	test   %al,%al
 804a088:	75 d2                	jne    804a05c <strpbrk+0x8>
 804a08a:	b8 00 00 00 00       	mov    $0x0,%eax
 804a08f:	c9                   	leave  
 804a090:	c3                   	ret    

0804a091 <strrchr>:
 804a091:	55                   	push   %ebp
 804a092:	89 e5                	mov    %esp,%ebp
 804a094:	83 ec 10             	sub    $0x10,%esp
 804a097:	8b 45 0c             	mov    0xc(%ebp),%eax
 804a09a:	88 45 fb             	mov    %al,-0x5(%ebp)
 804a09d:	c7 45 fc 00 00 00 00 	movl   $0x0,-0x4(%ebp)
 804a0a4:	eb 14                	jmp    804a0ba <strrchr+0x29>
 804a0a6:	8b 45 08             	mov    0x8(%ebp),%eax
 804a0a9:	0f b6 00             	movzbl (%eax),%eax
 804a0ac:	38 45 fb             	cmp    %al,-0x5(%ebp)
 804a0af:	75 06                	jne    804a0b7 <strrchr+0x26>
 804a0b1:	8b 45 08             	mov    0x8(%ebp),%eax
 804a0b4:	89 45 fc             	mov    %eax,-0x4(%ebp)
 804a0b7:	ff 45 08             	incl   0x8(%ebp)
 804a0ba:	8b 45 08             	mov    0x8(%ebp),%eax
 804a0bd:	0f b6 00             	movzbl (%eax),%eax
 804a0c0:	84 c0                	test   %al,%al
 804a0c2:	75 e2                	jne    804a0a6 <strrchr+0x15>
 804a0c4:	8b 45 fc             	mov    -0x4(%ebp),%eax
 804a0c7:	c9                   	leave  
 804a0c8:	c3                   	ret    

0804a0c9 <strspn>:
 804a0c9:	55                   	push   %ebp
 804a0ca:	89 e5                	mov    %esp,%ebp
 804a0cc:	83 ec 28             	sub    $0x28,%esp
 804a0cf:	c7 45 f4 00 00 00 00 	movl   $0x0,-0xc(%ebp)
 804a0d6:	eb 24                	jmp    804a0fc <strspn+0x33>
 804a0d8:	8b 55 08             	mov    0x8(%ebp),%edx
 804a0db:	8b 45 f4             	mov    -0xc(%ebp),%eax
 804a0de:	01 d0                	add    %edx,%eax
 804a0e0:	0f b6 00             	movzbl (%eax),%eax
 804a0e3:	0f be c0             	movsbl %al,%eax
 804a0e6:	89 44 24 04          	mov    %eax,0x4(%esp)
 804a0ea:	8b 45 0c             	mov    0xc(%ebp),%eax
 804a0ed:	89 04 24             	mov    %eax,(%esp)
 804a0f0:	e8 af fe ff ff       	call   8049fa4 <strchr>
 804a0f5:	85 c0                	test   %eax,%eax
 804a0f7:	74 14                	je     804a10d <strspn+0x44>
 804a0f9:	ff 45 f4             	incl   -0xc(%ebp)
 804a0fc:	8b 55 08             	mov    0x8(%ebp),%edx
 804a0ff:	8b 45 f4             	mov    -0xc(%ebp),%eax
 804a102:	01 d0                	add    %edx,%eax
 804a104:	0f b6 00             	movzbl (%eax),%eax
 804a107:	84 c0                	test   %al,%al
 804a109:	75 cd                	jne    804a0d8 <strspn+0xf>
 804a10b:	eb 01                	jmp    804a10e <strspn+0x45>
 804a10d:	90                   	nop
 804a10e:	8b 45 f4             	mov    -0xc(%ebp),%eax
 804a111:	c9                   	leave  
 804a112:	c3                   	ret    

0804a113 <strstr>:
 804a113:	55                   	push   %ebp
 804a114:	89 e5                	mov    %esp,%ebp
 804a116:	83 ec 28             	sub    $0x28,%esp
 804a119:	8b 45 08             	mov    0x8(%ebp),%eax
 804a11c:	89 04 24             	mov    %eax,(%esp)
 804a11f:	e8 fa 01 00 00       	call   804a31e <strlen>
 804a124:	89 45 f0             	mov    %eax,-0x10(%ebp)
 804a127:	8b 45 0c             	mov    0xc(%ebp),%eax
 804a12a:	89 04 24             	mov    %eax,(%esp)
 804a12d:	e8 ec 01 00 00       	call   804a31e <strlen>
 804a132:	89 45 ec             	mov    %eax,-0x14(%ebp)
 804a135:	8b 45 f0             	mov    -0x10(%ebp),%eax
 804a138:	3b 45 ec             	cmp    -0x14(%ebp),%eax
 804a13b:	72 43                	jb     804a180 <strstr+0x6d>
 804a13d:	c7 45 f4 00 00 00 00 	movl   $0x0,-0xc(%ebp)
 804a144:	eb 2f                	jmp    804a175 <strstr+0x62>
 804a146:	8b 55 08             	mov    0x8(%ebp),%edx
 804a149:	8b 45 f4             	mov    -0xc(%ebp),%eax
 804a14c:	01 c2                	add    %eax,%edx
 804a14e:	8b 45 ec             	mov    -0x14(%ebp),%eax
 804a151:	89 44 24 08          	mov    %eax,0x8(%esp)
 804a155:	8b 45 0c             	mov    0xc(%ebp),%eax
 804a158:	89 44 24 04          	mov    %eax,0x4(%esp)
 804a15c:	89 14 24             	mov    %edx,(%esp)
 804a15f:	e8 42 fc ff ff       	call   8049da6 <memcmp>
 804a164:	85 c0                	test   %eax,%eax
 804a166:	75 0a                	jne    804a172 <strstr+0x5f>
 804a168:	8b 55 08             	mov    0x8(%ebp),%edx
 804a16b:	8b 45 f4             	mov    -0xc(%ebp),%eax
 804a16e:	01 d0                	add    %edx,%eax
 804a170:	eb 13                	jmp    804a185 <strstr+0x72>
 804a172:	ff 45 f4             	incl   -0xc(%ebp)
 804a175:	8b 45 f0             	mov    -0x10(%ebp),%eax
 804a178:	2b 45 ec             	sub    -0x14(%ebp),%eax
 804a17b:	39 45 f4             	cmp    %eax,-0xc(%ebp)
 804a17e:	76 c6                	jbe    804a146 <strstr+0x33>
 804a180:	b8 00 00 00 00       	mov    $0x0,%eax
 804a185:	c9                   	leave  
 804a186:	c3                   	ret    

0804a187 <strtok_r>:
 804a187:	55                   	push   %ebp
 804a188:	89 e5                	mov    %esp,%ebp
 804a18a:	83 ec 38             	sub    $0x38,%esp
 804a18d:	83 7d 0c 00          	cmpl   $0x0,0xc(%ebp)
 804a191:	75 2c                	jne    804a1bf <strtok_r+0x38>
 804a193:	c7 44 24 10 38 b7 04 	movl   $0x804b738,0x10(%esp)
 804a19a:	08 
 804a19b:	c7 44 24 0c 89 b6 04 	movl   $0x804b689,0xc(%esp)
 804a1a2:	08 
 804a1a3:	c7 44 24 08 b0 b7 04 	movl   $0x804b7b0,0x8(%esp)
 804a1aa:	08 
 804a1ab:	c7 44 24 04 d6 00 00 	movl   $0xd6,0x4(%esp)
 804a1b2:	00 
 804a1b3:	c7 04 24 a0 b6 04 08 	movl   $0x804b6a0,(%esp)
 804a1ba:	e8 74 08 00 00       	call   804aa33 <debug_panic>
 804a1bf:	83 7d 10 00          	cmpl   $0x0,0x10(%ebp)
 804a1c3:	75 2c                	jne    804a1f1 <strtok_r+0x6a>
 804a1c5:	c7 44 24 10 4b b7 04 	movl   $0x804b74b,0x10(%esp)
 804a1cc:	08 
 804a1cd:	c7 44 24 0c 89 b6 04 	movl   $0x804b689,0xc(%esp)
 804a1d4:	08 
 804a1d5:	c7 44 24 08 b0 b7 04 	movl   $0x804b7b0,0x8(%esp)
 804a1dc:	08 
 804a1dd:	c7 44 24 04 d7 00 00 	movl   $0xd7,0x4(%esp)
 804a1e4:	00 
 804a1e5:	c7 04 24 a0 b6 04 08 	movl   $0x804b6a0,(%esp)
 804a1ec:	e8 42 08 00 00       	call   804aa33 <debug_panic>
 804a1f1:	83 7d 08 00          	cmpl   $0x0,0x8(%ebp)
 804a1f5:	75 08                	jne    804a1ff <strtok_r+0x78>
 804a1f7:	8b 45 10             	mov    0x10(%ebp),%eax
 804a1fa:	8b 00                	mov    (%eax),%eax
 804a1fc:	89 45 08             	mov    %eax,0x8(%ebp)
 804a1ff:	83 7d 08 00          	cmpl   $0x0,0x8(%ebp)
 804a203:	75 48                	jne    804a24d <strtok_r+0xc6>
 804a205:	c7 44 24 10 5c b7 04 	movl   $0x804b75c,0x10(%esp)
 804a20c:	08 
 804a20d:	c7 44 24 0c 89 b6 04 	movl   $0x804b689,0xc(%esp)
 804a214:	08 
 804a215:	c7 44 24 08 b0 b7 04 	movl   $0x804b7b0,0x8(%esp)
 804a21c:	08 
 804a21d:	c7 44 24 04 dd 00 00 	movl   $0xdd,0x4(%esp)
 804a224:	00 
 804a225:	c7 04 24 a0 b6 04 08 	movl   $0x804b6a0,(%esp)
 804a22c:	e8 02 08 00 00       	call   804aa33 <debug_panic>
 804a231:	8b 45 08             	mov    0x8(%ebp),%eax
 804a234:	0f b6 00             	movzbl (%eax),%eax
 804a237:	84 c0                	test   %al,%al
 804a239:	75 0f                	jne    804a24a <strtok_r+0xc3>
 804a23b:	8b 45 10             	mov    0x10(%ebp),%eax
 804a23e:	8b 55 08             	mov    0x8(%ebp),%edx
 804a241:	89 10                	mov    %edx,(%eax)
 804a243:	b8 00 00 00 00       	mov    $0x0,%eax
 804a248:	eb 6e                	jmp    804a2b8 <strtok_r+0x131>
 804a24a:	ff 45 08             	incl   0x8(%ebp)
 804a24d:	8b 45 08             	mov    0x8(%ebp),%eax
 804a250:	0f b6 00             	movzbl (%eax),%eax
 804a253:	0f be c0             	movsbl %al,%eax
 804a256:	89 44 24 04          	mov    %eax,0x4(%esp)
 804a25a:	8b 45 0c             	mov    0xc(%ebp),%eax
 804a25d:	89 04 24             	mov    %eax,(%esp)
 804a260:	e8 3f fd ff ff       	call   8049fa4 <strchr>
 804a265:	85 c0                	test   %eax,%eax
 804a267:	75 c8                	jne    804a231 <strtok_r+0xaa>
 804a269:	8b 45 08             	mov    0x8(%ebp),%eax
 804a26c:	89 45 f4             	mov    %eax,-0xc(%ebp)
 804a26f:	eb 03                	jmp    804a274 <strtok_r+0xed>
 804a271:	ff 45 08             	incl   0x8(%ebp)
 804a274:	8b 45 08             	mov    0x8(%ebp),%eax
 804a277:	0f b6 00             	movzbl (%eax),%eax
 804a27a:	0f be c0             	movsbl %al,%eax
 804a27d:	89 44 24 04          	mov    %eax,0x4(%esp)
 804a281:	8b 45 0c             	mov    0xc(%ebp),%eax
 804a284:	89 04 24             	mov    %eax,(%esp)
 804a287:	e8 18 fd ff ff       	call   8049fa4 <strchr>
 804a28c:	85 c0                	test   %eax,%eax
 804a28e:	74 e1                	je     804a271 <strtok_r+0xea>
 804a290:	8b 45 08             	mov    0x8(%ebp),%eax
 804a293:	0f b6 00             	movzbl (%eax),%eax
 804a296:	84 c0                	test   %al,%al
 804a298:	74 13                	je     804a2ad <strtok_r+0x126>
 804a29a:	8b 45 08             	mov    0x8(%ebp),%eax
 804a29d:	c6 00 00             	movb   $0x0,(%eax)
 804a2a0:	8b 45 08             	mov    0x8(%ebp),%eax
 804a2a3:	8d 50 01             	lea    0x1(%eax),%edx
 804a2a6:	8b 45 10             	mov    0x10(%ebp),%eax
 804a2a9:	89 10                	mov    %edx,(%eax)
 804a2ab:	eb 08                	jmp    804a2b5 <strtok_r+0x12e>
 804a2ad:	8b 45 10             	mov    0x10(%ebp),%eax
 804a2b0:	8b 55 08             	mov    0x8(%ebp),%edx
 804a2b3:	89 10                	mov    %edx,(%eax)
 804a2b5:	8b 45 f4             	mov    -0xc(%ebp),%eax
 804a2b8:	c9                   	leave  
 804a2b9:	c3                   	ret    

0804a2ba <memset>:
 804a2ba:	55                   	push   %ebp
 804a2bb:	89 e5                	mov    %esp,%ebp
 804a2bd:	83 ec 38             	sub    $0x38,%esp
 804a2c0:	8b 45 08             	mov    0x8(%ebp),%eax
 804a2c3:	89 45 f4             	mov    %eax,-0xc(%ebp)
 804a2c6:	83 7d f4 00          	cmpl   $0x0,-0xc(%ebp)
 804a2ca:	75 40                	jne    804a30c <memset+0x52>
 804a2cc:	83 7d 10 00          	cmpl   $0x0,0x10(%ebp)
 804a2d0:	74 3a                	je     804a30c <memset+0x52>
 804a2d2:	c7 44 24 10 70 b6 04 	movl   $0x804b670,0x10(%esp)
 804a2d9:	08 
 804a2da:	c7 44 24 0c 89 b6 04 	movl   $0x804b689,0xc(%esp)
 804a2e1:	08 
 804a2e2:	c7 44 24 08 bc b7 04 	movl   $0x804b7bc,0x8(%esp)
 804a2e9:	08 
 804a2ea:	c7 44 24 04 fc 00 00 	movl   $0xfc,0x4(%esp)
 804a2f1:	00 
 804a2f2:	c7 04 24 a0 b6 04 08 	movl   $0x804b6a0,(%esp)
 804a2f9:	e8 35 07 00 00       	call   804aa33 <debug_panic>
 804a2fe:	8b 45 f4             	mov    -0xc(%ebp),%eax
 804a301:	8d 50 01             	lea    0x1(%eax),%edx
 804a304:	89 55 f4             	mov    %edx,-0xc(%ebp)
 804a307:	8b 55 0c             	mov    0xc(%ebp),%edx
 804a30a:	88 10                	mov    %dl,(%eax)
 804a30c:	8b 45 10             	mov    0x10(%ebp),%eax
 804a30f:	8d 50 ff             	lea    -0x1(%eax),%edx
 804a312:	89 55 10             	mov    %edx,0x10(%ebp)
 804a315:	85 c0                	test   %eax,%eax
 804a317:	75 e5                	jne    804a2fe <memset+0x44>
 804a319:	8b 45 08             	mov    0x8(%ebp),%eax
 804a31c:	c9                   	leave  
 804a31d:	c3                   	ret    

0804a31e <strlen>:
 804a31e:	55                   	push   %ebp
 804a31f:	89 e5                	mov    %esp,%ebp
 804a321:	83 ec 38             	sub    $0x38,%esp
 804a324:	83 7d 08 00          	cmpl   $0x0,0x8(%ebp)
 804a328:	75 2c                	jne    804a356 <strlen+0x38>
 804a32a:	c7 44 24 10 29 b7 04 	movl   $0x804b729,0x10(%esp)
 804a331:	08 
 804a332:	c7 44 24 0c 89 b6 04 	movl   $0x804b689,0xc(%esp)
 804a339:	08 
 804a33a:	c7 44 24 08 c4 b7 04 	movl   $0x804b7c4,0x8(%esp)
 804a341:	08 
 804a342:	c7 44 24 04 08 01 00 	movl   $0x108,0x4(%esp)
 804a349:	00 
 804a34a:	c7 04 24 a0 b6 04 08 	movl   $0x804b6a0,(%esp)
 804a351:	e8 dd 06 00 00       	call   804aa33 <debug_panic>
 804a356:	8b 45 08             	mov    0x8(%ebp),%eax
 804a359:	89 45 f4             	mov    %eax,-0xc(%ebp)
 804a35c:	eb 03                	jmp    804a361 <strlen+0x43>
 804a35e:	ff 45 f4             	incl   -0xc(%ebp)
 804a361:	8b 45 f4             	mov    -0xc(%ebp),%eax
 804a364:	0f b6 00             	movzbl (%eax),%eax
 804a367:	84 c0                	test   %al,%al
 804a369:	75 f3                	jne    804a35e <strlen+0x40>
 804a36b:	8b 55 f4             	mov    -0xc(%ebp),%edx
 804a36e:	8b 45 08             	mov    0x8(%ebp),%eax
 804a371:	29 c2                	sub    %eax,%edx
 804a373:	89 d0                	mov    %edx,%eax
 804a375:	c9                   	leave  
 804a376:	c3                   	ret    

0804a377 <strnlen>:
 804a377:	55                   	push   %ebp
 804a378:	89 e5                	mov    %esp,%ebp
 804a37a:	83 ec 10             	sub    $0x10,%esp
 804a37d:	c7 45 fc 00 00 00 00 	movl   $0x0,-0x4(%ebp)
 804a384:	eb 03                	jmp    804a389 <strnlen+0x12>
 804a386:	ff 45 fc             	incl   -0x4(%ebp)
 804a389:	8b 55 08             	mov    0x8(%ebp),%edx
 804a38c:	8b 45 fc             	mov    -0x4(%ebp),%eax
 804a38f:	01 d0                	add    %edx,%eax
 804a391:	0f b6 00             	movzbl (%eax),%eax
 804a394:	84 c0                	test   %al,%al
 804a396:	74 08                	je     804a3a0 <strnlen+0x29>
 804a398:	8b 45 fc             	mov    -0x4(%ebp),%eax
 804a39b:	3b 45 0c             	cmp    0xc(%ebp),%eax
 804a39e:	72 e6                	jb     804a386 <strnlen+0xf>
 804a3a0:	8b 45 fc             	mov    -0x4(%ebp),%eax
 804a3a3:	c9                   	leave  
 804a3a4:	c3                   	ret    

0804a3a5 <strlcpy>:
 804a3a5:	55                   	push   %ebp
 804a3a6:	89 e5                	mov    %esp,%ebp
 804a3a8:	83 ec 38             	sub    $0x38,%esp
 804a3ab:	83 7d 08 00          	cmpl   $0x0,0x8(%ebp)
 804a3af:	75 2c                	jne    804a3dd <strlcpy+0x38>
 804a3b1:	c7 44 24 10 66 b7 04 	movl   $0x804b766,0x10(%esp)
 804a3b8:	08 
 804a3b9:	c7 44 24 0c 89 b6 04 	movl   $0x804b689,0xc(%esp)
 804a3c0:	08 
 804a3c1:	c7 44 24 08 cc b7 04 	movl   $0x804b7cc,0x8(%esp)
 804a3c8:	08 
 804a3c9:	c7 44 24 04 25 01 00 	movl   $0x125,0x4(%esp)
 804a3d0:	00 
 804a3d1:	c7 04 24 a0 b6 04 08 	movl   $0x804b6a0,(%esp)
 804a3d8:	e8 56 06 00 00       	call   804aa33 <debug_panic>
 804a3dd:	83 7d 0c 00          	cmpl   $0x0,0xc(%ebp)
 804a3e1:	75 2c                	jne    804a40f <strlcpy+0x6a>
 804a3e3:	c7 44 24 10 72 b7 04 	movl   $0x804b772,0x10(%esp)
 804a3ea:	08 
 804a3eb:	c7 44 24 0c 89 b6 04 	movl   $0x804b689,0xc(%esp)
 804a3f2:	08 
 804a3f3:	c7 44 24 08 cc b7 04 	movl   $0x804b7cc,0x8(%esp)
 804a3fa:	08 
 804a3fb:	c7 44 24 04 26 01 00 	movl   $0x126,0x4(%esp)
 804a402:	00 
 804a403:	c7 04 24 a0 b6 04 08 	movl   $0x804b6a0,(%esp)
 804a40a:	e8 24 06 00 00       	call   804aa33 <debug_panic>
 804a40f:	8b 45 0c             	mov    0xc(%ebp),%eax
 804a412:	89 04 24             	mov    %eax,(%esp)
 804a415:	e8 04 ff ff ff       	call   804a31e <strlen>
 804a41a:	89 45 f0             	mov    %eax,-0x10(%ebp)
 804a41d:	83 7d 10 00          	cmpl   $0x0,0x10(%ebp)
 804a421:	74 39                	je     804a45c <strlcpy+0xb7>
 804a423:	8b 45 10             	mov    0x10(%ebp),%eax
 804a426:	48                   	dec    %eax
 804a427:	89 45 f4             	mov    %eax,-0xc(%ebp)
 804a42a:	8b 45 f0             	mov    -0x10(%ebp),%eax
 804a42d:	3b 45 f4             	cmp    -0xc(%ebp),%eax
 804a430:	73 06                	jae    804a438 <strlcpy+0x93>
 804a432:	8b 45 f0             	mov    -0x10(%ebp),%eax
 804a435:	89 45 f4             	mov    %eax,-0xc(%ebp)
 804a438:	8b 45 f4             	mov    -0xc(%ebp),%eax
 804a43b:	89 44 24 08          	mov    %eax,0x8(%esp)
 804a43f:	8b 45 0c             	mov    0xc(%ebp),%eax
 804a442:	89 44 24 04          	mov    %eax,0x4(%esp)
 804a446:	8b 45 08             	mov    0x8(%ebp),%eax
 804a449:	89 04 24             	mov    %eax,(%esp)
 804a44c:	e8 c7 f7 ff ff       	call   8049c18 <memcpy>
 804a451:	8b 55 08             	mov    0x8(%ebp),%edx
 804a454:	8b 45 f4             	mov    -0xc(%ebp),%eax
 804a457:	01 d0                	add    %edx,%eax
 804a459:	c6 00 00             	movb   $0x0,(%eax)
 804a45c:	8b 45 f0             	mov    -0x10(%ebp),%eax
 804a45f:	c9                   	leave  
 804a460:	c3                   	ret    

0804a461 <strlcat>:
 804a461:	55                   	push   %ebp
 804a462:	89 e5                	mov    %esp,%ebp
 804a464:	83 ec 38             	sub    $0x38,%esp
 804a467:	83 7d 08 00          	cmpl   $0x0,0x8(%ebp)
 804a46b:	75 2c                	jne    804a499 <strlcat+0x38>
 804a46d:	c7 44 24 10 66 b7 04 	movl   $0x804b766,0x10(%esp)
 804a474:	08 
 804a475:	c7 44 24 0c 89 b6 04 	movl   $0x804b689,0xc(%esp)
 804a47c:	08 
 804a47d:	c7 44 24 08 d4 b7 04 	movl   $0x804b7d4,0x8(%esp)
 804a484:	08 
 804a485:	c7 44 24 04 40 01 00 	movl   $0x140,0x4(%esp)
 804a48c:	00 
 804a48d:	c7 04 24 a0 b6 04 08 	movl   $0x804b6a0,(%esp)
 804a494:	e8 9a 05 00 00       	call   804aa33 <debug_panic>
 804a499:	83 7d 0c 00          	cmpl   $0x0,0xc(%ebp)
 804a49d:	75 2c                	jne    804a4cb <strlcat+0x6a>
 804a49f:	c7 44 24 10 72 b7 04 	movl   $0x804b772,0x10(%esp)
 804a4a6:	08 
 804a4a7:	c7 44 24 0c 89 b6 04 	movl   $0x804b689,0xc(%esp)
 804a4ae:	08 
 804a4af:	c7 44 24 08 d4 b7 04 	movl   $0x804b7d4,0x8(%esp)
 804a4b6:	08 
 804a4b7:	c7 44 24 04 41 01 00 	movl   $0x141,0x4(%esp)
 804a4be:	00 
 804a4bf:	c7 04 24 a0 b6 04 08 	movl   $0x804b6a0,(%esp)
 804a4c6:	e8 68 05 00 00       	call   804aa33 <debug_panic>
 804a4cb:	8b 45 0c             	mov    0xc(%ebp),%eax
 804a4ce:	89 04 24             	mov    %eax,(%esp)
 804a4d1:	e8 48 fe ff ff       	call   804a31e <strlen>
 804a4d6:	89 45 f0             	mov    %eax,-0x10(%ebp)
 804a4d9:	8b 45 08             	mov    0x8(%ebp),%eax
 804a4dc:	89 04 24             	mov    %eax,(%esp)
 804a4df:	e8 3a fe ff ff       	call   804a31e <strlen>
 804a4e4:	89 45 ec             	mov    %eax,-0x14(%ebp)
 804a4e7:	83 7d 10 00          	cmpl   $0x0,0x10(%ebp)
 804a4eb:	74 4e                	je     804a53b <strlcat+0xda>
 804a4ed:	8b 45 ec             	mov    -0x14(%ebp),%eax
 804a4f0:	3b 45 10             	cmp    0x10(%ebp),%eax
 804a4f3:	73 46                	jae    804a53b <strlcat+0xda>
 804a4f5:	8b 45 10             	mov    0x10(%ebp),%eax
 804a4f8:	2b 45 ec             	sub    -0x14(%ebp),%eax
 804a4fb:	48                   	dec    %eax
 804a4fc:	89 45 f4             	mov    %eax,-0xc(%ebp)
 804a4ff:	8b 45 f0             	mov    -0x10(%ebp),%eax
 804a502:	3b 45 f4             	cmp    -0xc(%ebp),%eax
 804a505:	73 06                	jae    804a50d <strlcat+0xac>
 804a507:	8b 45 f0             	mov    -0x10(%ebp),%eax
 804a50a:	89 45 f4             	mov    %eax,-0xc(%ebp)
 804a50d:	8b 55 08             	mov    0x8(%ebp),%edx
 804a510:	8b 45 ec             	mov    -0x14(%ebp),%eax
 804a513:	01 c2                	add    %eax,%edx
 804a515:	8b 45 f4             	mov    -0xc(%ebp),%eax
 804a518:	89 44 24 08          	mov    %eax,0x8(%esp)
 804a51c:	8b 45 0c             	mov    0xc(%ebp),%eax
 804a51f:	89 44 24 04          	mov    %eax,0x4(%esp)
 804a523:	89 14 24             	mov    %edx,(%esp)
 804a526:	e8 ed f6 ff ff       	call   8049c18 <memcpy>
 804a52b:	8b 55 ec             	mov    -0x14(%ebp),%edx
 804a52e:	8b 45 f4             	mov    -0xc(%ebp),%eax
 804a531:	01 c2                	add    %eax,%edx
 804a533:	8b 45 08             	mov    0x8(%ebp),%eax
 804a536:	01 d0                	add    %edx,%eax
 804a538:	c6 00 00             	movb   $0x0,(%eax)
 804a53b:	8b 55 f0             	mov    -0x10(%ebp),%edx
 804a53e:	8b 45 ec             	mov    -0x14(%ebp),%eax
 804a541:	01 d0                	add    %edx,%eax
 804a543:	c9                   	leave  
 804a544:	c3                   	ret    

0804a545 <divl>:
 804a545:	55                   	push   %ebp
 804a546:	89 e5                	mov    %esp,%ebp
 804a548:	53                   	push   %ebx
 804a549:	83 ec 1c             	sub    $0x1c,%esp
 804a54c:	8b 45 08             	mov    0x8(%ebp),%eax
 804a54f:	89 45 e0             	mov    %eax,-0x20(%ebp)
 804a552:	8b 45 0c             	mov    0xc(%ebp),%eax
 804a555:	89 45 e4             	mov    %eax,-0x1c(%ebp)
 804a558:	8b 45 e0             	mov    -0x20(%ebp),%eax
 804a55b:	8b 55 e4             	mov    -0x1c(%ebp),%edx
 804a55e:	89 d0                	mov    %edx,%eax
 804a560:	31 d2                	xor    %edx,%edx
 804a562:	89 c1                	mov    %eax,%ecx
 804a564:	89 d3                	mov    %edx,%ebx
 804a566:	89 4d f4             	mov    %ecx,-0xc(%ebp)
 804a569:	8b 45 e0             	mov    -0x20(%ebp),%eax
 804a56c:	89 45 f0             	mov    %eax,-0x10(%ebp)
 804a56f:	8b 55 f4             	mov    -0xc(%ebp),%edx
 804a572:	8b 45 f0             	mov    -0x10(%ebp),%eax
 804a575:	f7 75 10             	divl   0x10(%ebp)
 804a578:	89 55 ec             	mov    %edx,-0x14(%ebp)
 804a57b:	89 45 e8             	mov    %eax,-0x18(%ebp)
 804a57e:	8b 45 e8             	mov    -0x18(%ebp),%eax
 804a581:	83 c4 1c             	add    $0x1c,%esp
 804a584:	5b                   	pop    %ebx
 804a585:	5d                   	pop    %ebp
 804a586:	c3                   	ret    

0804a587 <nlz>:
 804a587:	55                   	push   %ebp
 804a588:	89 e5                	mov    %esp,%ebp
 804a58a:	83 ec 10             	sub    $0x10,%esp
 804a58d:	c7 45 fc 00 00 00 00 	movl   $0x0,-0x4(%ebp)
 804a594:	81 7d 08 ff ff 00 00 	cmpl   $0xffff,0x8(%ebp)
 804a59b:	77 08                	ja     804a5a5 <nlz+0x1e>
 804a59d:	83 45 fc 10          	addl   $0x10,-0x4(%ebp)
 804a5a1:	c1 65 08 10          	shll   $0x10,0x8(%ebp)
 804a5a5:	81 7d 08 ff ff ff 00 	cmpl   $0xffffff,0x8(%ebp)
 804a5ac:	77 08                	ja     804a5b6 <nlz+0x2f>
 804a5ae:	83 45 fc 08          	addl   $0x8,-0x4(%ebp)
 804a5b2:	c1 65 08 08          	shll   $0x8,0x8(%ebp)
 804a5b6:	81 7d 08 ff ff ff 0f 	cmpl   $0xfffffff,0x8(%ebp)
 804a5bd:	77 08                	ja     804a5c7 <nlz+0x40>
 804a5bf:	83 45 fc 04          	addl   $0x4,-0x4(%ebp)
 804a5c3:	c1 65 08 04          	shll   $0x4,0x8(%ebp)
 804a5c7:	81 7d 08 ff ff ff 3f 	cmpl   $0x3fffffff,0x8(%ebp)
 804a5ce:	77 08                	ja     804a5d8 <nlz+0x51>
 804a5d0:	83 45 fc 02          	addl   $0x2,-0x4(%ebp)
 804a5d4:	c1 65 08 02          	shll   $0x2,0x8(%ebp)
 804a5d8:	8b 45 08             	mov    0x8(%ebp),%eax
 804a5db:	85 c0                	test   %eax,%eax
 804a5dd:	78 03                	js     804a5e2 <nlz+0x5b>
 804a5df:	ff 45 fc             	incl   -0x4(%ebp)
 804a5e2:	8b 45 fc             	mov    -0x4(%ebp),%eax
 804a5e5:	c9                   	leave  
 804a5e6:	c3                   	ret    

0804a5e7 <udiv64>:
 804a5e7:	55                   	push   %ebp
 804a5e8:	89 e5                	mov    %esp,%ebp
 804a5ea:	57                   	push   %edi
 804a5eb:	56                   	push   %esi
 804a5ec:	53                   	push   %ebx
 804a5ed:	83 ec 54             	sub    $0x54,%esp
 804a5f0:	8b 4d 08             	mov    0x8(%ebp),%ecx
 804a5f3:	89 4d b8             	mov    %ecx,-0x48(%ebp)
 804a5f6:	8b 4d 0c             	mov    0xc(%ebp),%ecx
 804a5f9:	89 4d bc             	mov    %ecx,-0x44(%ebp)
 804a5fc:	8b 4d 10             	mov    0x10(%ebp),%ecx
 804a5ff:	89 4d b0             	mov    %ecx,-0x50(%ebp)
 804a602:	8b 4d 14             	mov    0x14(%ebp),%ecx
 804a605:	89 4d b4             	mov    %ecx,-0x4c(%ebp)
 804a608:	8b 4d b0             	mov    -0x50(%ebp),%ecx
 804a60b:	8b 5d b4             	mov    -0x4c(%ebp),%ebx
 804a60e:	89 d9                	mov    %ebx,%ecx
 804a610:	31 db                	xor    %ebx,%ebx
 804a612:	89 cf                	mov    %ecx,%edi
 804a614:	83 f7 00             	xor    $0x0,%edi
 804a617:	89 f8                	mov    %edi,%eax
 804a619:	89 de                	mov    %ebx,%esi
 804a61b:	83 f6 00             	xor    $0x0,%esi
 804a61e:	89 f2                	mov    %esi,%edx
 804a620:	09 d0                	or     %edx,%eax
 804a622:	85 c0                	test   %eax,%eax
 804a624:	0f 85 aa 00 00 00    	jne    804a6d4 <udiv64+0xed>
 804a62a:	c7 45 d8 00 00 00 00 	movl   $0x0,-0x28(%ebp)
 804a631:	c7 45 dc 01 00 00 00 	movl   $0x1,-0x24(%ebp)
 804a638:	8b 45 b8             	mov    -0x48(%ebp),%eax
 804a63b:	8b 55 bc             	mov    -0x44(%ebp),%edx
 804a63e:	89 d0                	mov    %edx,%eax
 804a640:	31 d2                	xor    %edx,%edx
 804a642:	89 c6                	mov    %eax,%esi
 804a644:	89 d7                	mov    %edx,%edi
 804a646:	89 75 d4             	mov    %esi,-0x2c(%ebp)
 804a649:	8b 45 b8             	mov    -0x48(%ebp),%eax
 804a64c:	89 45 d0             	mov    %eax,-0x30(%ebp)
 804a64f:	8b 45 b0             	mov    -0x50(%ebp),%eax
 804a652:	89 45 cc             	mov    %eax,-0x34(%ebp)
 804a655:	8b 45 d4             	mov    -0x2c(%ebp),%eax
 804a658:	ba 00 00 00 00       	mov    $0x0,%edx
 804a65d:	f7 75 cc             	divl   -0x34(%ebp)
 804a660:	89 d0                	mov    %edx,%eax
 804a662:	ba 00 00 00 00       	mov    $0x0,%edx
 804a667:	8b 4d d8             	mov    -0x28(%ebp),%ecx
 804a66a:	89 cb                	mov    %ecx,%ebx
 804a66c:	0f af da             	imul   %edx,%ebx
 804a66f:	8b 4d dc             	mov    -0x24(%ebp),%ecx
 804a672:	0f af c8             	imul   %eax,%ecx
 804a675:	01 d9                	add    %ebx,%ecx
 804a677:	f7 65 d8             	mull   -0x28(%ebp)
 804a67a:	01 d1                	add    %edx,%ecx
 804a67c:	89 ca                	mov    %ecx,%edx
 804a67e:	8b 4d d0             	mov    -0x30(%ebp),%ecx
 804a681:	bb 00 00 00 00       	mov    $0x0,%ebx
 804a686:	01 c8                	add    %ecx,%eax
 804a688:	11 da                	adc    %ebx,%edx
 804a68a:	8b 4d cc             	mov    -0x34(%ebp),%ecx
 804a68d:	89 4c 24 08          	mov    %ecx,0x8(%esp)
 804a691:	89 04 24             	mov    %eax,(%esp)
 804a694:	89 54 24 04          	mov    %edx,0x4(%esp)
 804a698:	e8 a8 fe ff ff       	call   804a545 <divl>
 804a69d:	89 c6                	mov    %eax,%esi
 804a69f:	bf 00 00 00 00       	mov    $0x0,%edi
 804a6a4:	8b 45 d4             	mov    -0x2c(%ebp),%eax
 804a6a7:	ba 00 00 00 00       	mov    $0x0,%edx
 804a6ac:	f7 75 cc             	divl   -0x34(%ebp)
 804a6af:	ba 00 00 00 00       	mov    $0x0,%edx
 804a6b4:	8b 4d d8             	mov    -0x28(%ebp),%ecx
 804a6b7:	89 cb                	mov    %ecx,%ebx
 804a6b9:	0f af da             	imul   %edx,%ebx
 804a6bc:	8b 4d dc             	mov    -0x24(%ebp),%ecx
 804a6bf:	0f af c8             	imul   %eax,%ecx
 804a6c2:	01 d9                	add    %ebx,%ecx
 804a6c4:	f7 65 d8             	mull   -0x28(%ebp)
 804a6c7:	01 d1                	add    %edx,%ecx
 804a6c9:	89 ca                	mov    %ecx,%edx
 804a6cb:	01 f0                	add    %esi,%eax
 804a6cd:	11 fa                	adc    %edi,%edx
 804a6cf:	e9 f6 00 00 00       	jmp    804a7ca <udiv64+0x1e3>
 804a6d4:	8b 45 b8             	mov    -0x48(%ebp),%eax
 804a6d7:	8b 55 bc             	mov    -0x44(%ebp),%edx
 804a6da:	3b 55 b4             	cmp    -0x4c(%ebp),%edx
 804a6dd:	77 19                	ja     804a6f8 <udiv64+0x111>
 804a6df:	3b 55 b4             	cmp    -0x4c(%ebp),%edx
 804a6e2:	72 05                	jb     804a6e9 <udiv64+0x102>
 804a6e4:	3b 45 b0             	cmp    -0x50(%ebp),%eax
 804a6e7:	73 0f                	jae    804a6f8 <udiv64+0x111>
 804a6e9:	b8 00 00 00 00       	mov    $0x0,%eax
 804a6ee:	ba 00 00 00 00       	mov    $0x0,%edx
 804a6f3:	e9 d2 00 00 00       	jmp    804a7ca <udiv64+0x1e3>
 804a6f8:	8b 45 b0             	mov    -0x50(%ebp),%eax
 804a6fb:	8b 55 b4             	mov    -0x4c(%ebp),%edx
 804a6fe:	89 d0                	mov    %edx,%eax
 804a700:	31 d2                	xor    %edx,%edx
 804a702:	89 c6                	mov    %eax,%esi
 804a704:	89 d7                	mov    %edx,%edi
 804a706:	89 75 ec             	mov    %esi,-0x14(%ebp)
 804a709:	8b 45 ec             	mov    -0x14(%ebp),%eax
 804a70c:	89 04 24             	mov    %eax,(%esp)
 804a70f:	e8 73 fe ff ff       	call   804a587 <nlz>
 804a714:	89 45 e8             	mov    %eax,-0x18(%ebp)
 804a717:	8b 4d e8             	mov    -0x18(%ebp),%ecx
 804a71a:	8b 45 b0             	mov    -0x50(%ebp),%eax
 804a71d:	8b 55 b4             	mov    -0x4c(%ebp),%edx
 804a720:	0f a5 c2             	shld   %cl,%eax,%edx
 804a723:	d3 e0                	shl    %cl,%eax
 804a725:	f6 c1 20             	test   $0x20,%cl
 804a728:	74 04                	je     804a72e <udiv64+0x147>
 804a72a:	89 c2                	mov    %eax,%edx
 804a72c:	31 c0                	xor    %eax,%eax
 804a72e:	89 c6                	mov    %eax,%esi
 804a730:	89 d7                	mov    %edx,%edi
 804a732:	89 f0                	mov    %esi,%eax
 804a734:	89 fa                	mov    %edi,%edx
 804a736:	89 d0                	mov    %edx,%eax
 804a738:	31 d2                	xor    %edx,%edx
 804a73a:	89 c1                	mov    %eax,%ecx
 804a73c:	8b 45 b8             	mov    -0x48(%ebp),%eax
 804a73f:	8b 55 bc             	mov    -0x44(%ebp),%edx
 804a742:	0f ac d0 01          	shrd   $0x1,%edx,%eax
 804a746:	d1 ea                	shr    %edx
 804a748:	89 c6                	mov    %eax,%esi
 804a74a:	89 d7                	mov    %edx,%edi
 804a74c:	89 4c 24 08          	mov    %ecx,0x8(%esp)
 804a750:	89 34 24             	mov    %esi,(%esp)
 804a753:	89 7c 24 04          	mov    %edi,0x4(%esp)
 804a757:	e8 e9 fd ff ff       	call   804a545 <divl>
 804a75c:	89 c2                	mov    %eax,%edx
 804a75e:	b8 1f 00 00 00       	mov    $0x1f,%eax
 804a763:	2b 45 e8             	sub    -0x18(%ebp),%eax
 804a766:	88 c1                	mov    %al,%cl
 804a768:	d3 ea                	shr    %cl,%edx
 804a76a:	89 d0                	mov    %edx,%eax
 804a76c:	89 45 e0             	mov    %eax,-0x20(%ebp)
 804a76f:	c7 45 e4 00 00 00 00 	movl   $0x0,-0x1c(%ebp)
 804a776:	8b 45 e0             	mov    -0x20(%ebp),%eax
 804a779:	8b 55 e4             	mov    -0x1c(%ebp),%edx
 804a77c:	83 c0 ff             	add    $0xffffffff,%eax
 804a77f:	83 d2 ff             	adc    $0xffffffff,%edx
 804a782:	8b 4d b0             	mov    -0x50(%ebp),%ecx
 804a785:	89 cb                	mov    %ecx,%ebx
 804a787:	0f af da             	imul   %edx,%ebx
 804a78a:	8b 4d b4             	mov    -0x4c(%ebp),%ecx
 804a78d:	0f af c8             	imul   %eax,%ecx
 804a790:	01 d9                	add    %ebx,%ecx
 804a792:	f7 65 b0             	mull   -0x50(%ebp)
 804a795:	01 d1                	add    %edx,%ecx
 804a797:	89 ca                	mov    %ecx,%edx
 804a799:	8b 4d b8             	mov    -0x48(%ebp),%ecx
 804a79c:	8b 5d bc             	mov    -0x44(%ebp),%ebx
 804a79f:	29 c1                	sub    %eax,%ecx
 804a7a1:	19 d3                	sbb    %edx,%ebx
 804a7a3:	89 c8                	mov    %ecx,%eax
 804a7a5:	89 da                	mov    %ebx,%edx
 804a7a7:	39 55 b4             	cmp    %edx,-0x4c(%ebp)
 804a7aa:	72 18                	jb     804a7c4 <udiv64+0x1dd>
 804a7ac:	39 55 b4             	cmp    %edx,-0x4c(%ebp)
 804a7af:	77 05                	ja     804a7b6 <udiv64+0x1cf>
 804a7b1:	39 45 b0             	cmp    %eax,-0x50(%ebp)
 804a7b4:	76 0e                	jbe    804a7c4 <udiv64+0x1dd>
 804a7b6:	8b 45 e0             	mov    -0x20(%ebp),%eax
 804a7b9:	8b 55 e4             	mov    -0x1c(%ebp),%edx
 804a7bc:	83 c0 ff             	add    $0xffffffff,%eax
 804a7bf:	83 d2 ff             	adc    $0xffffffff,%edx
 804a7c2:	eb 06                	jmp    804a7ca <udiv64+0x1e3>
 804a7c4:	8b 45 e0             	mov    -0x20(%ebp),%eax
 804a7c7:	8b 55 e4             	mov    -0x1c(%ebp),%edx
 804a7ca:	83 c4 54             	add    $0x54,%esp
 804a7cd:	5b                   	pop    %ebx
 804a7ce:	5e                   	pop    %esi
 804a7cf:	5f                   	pop    %edi
 804a7d0:	5d                   	pop    %ebp
 804a7d1:	c3                   	ret    

0804a7d2 <umod64>:
 804a7d2:	55                   	push   %ebp
 804a7d3:	89 e5                	mov    %esp,%ebp
 804a7d5:	53                   	push   %ebx
 804a7d6:	83 ec 24             	sub    $0x24,%esp
 804a7d9:	8b 45 08             	mov    0x8(%ebp),%eax
 804a7dc:	89 45 f0             	mov    %eax,-0x10(%ebp)
 804a7df:	8b 45 0c             	mov    0xc(%ebp),%eax
 804a7e2:	89 45 f4             	mov    %eax,-0xc(%ebp)
 804a7e5:	8b 45 10             	mov    0x10(%ebp),%eax
 804a7e8:	89 45 e8             	mov    %eax,-0x18(%ebp)
 804a7eb:	8b 45 14             	mov    0x14(%ebp),%eax
 804a7ee:	89 45 ec             	mov    %eax,-0x14(%ebp)
 804a7f1:	8b 5d f0             	mov    -0x10(%ebp),%ebx
 804a7f4:	8b 45 e8             	mov    -0x18(%ebp),%eax
 804a7f7:	8b 55 ec             	mov    -0x14(%ebp),%edx
 804a7fa:	89 44 24 08          	mov    %eax,0x8(%esp)
 804a7fe:	89 54 24 0c          	mov    %edx,0xc(%esp)
 804a802:	8b 45 f0             	mov    -0x10(%ebp),%eax
 804a805:	8b 55 f4             	mov    -0xc(%ebp),%edx
 804a808:	89 04 24             	mov    %eax,(%esp)
 804a80b:	89 54 24 04          	mov    %edx,0x4(%esp)
 804a80f:	e8 d3 fd ff ff       	call   804a5e7 <udiv64>
 804a814:	89 c2                	mov    %eax,%edx
 804a816:	8b 45 e8             	mov    -0x18(%ebp),%eax
 804a819:	0f af c2             	imul   %edx,%eax
 804a81c:	29 c3                	sub    %eax,%ebx
 804a81e:	89 d8                	mov    %ebx,%eax
 804a820:	83 c4 24             	add    $0x24,%esp
 804a823:	5b                   	pop    %ebx
 804a824:	5d                   	pop    %ebp
 804a825:	c3                   	ret    

0804a826 <sdiv64>:
 804a826:	55                   	push   %ebp
 804a827:	89 e5                	mov    %esp,%ebp
 804a829:	83 ec 40             	sub    $0x40,%esp
 804a82c:	8b 45 08             	mov    0x8(%ebp),%eax
 804a82f:	89 45 d8             	mov    %eax,-0x28(%ebp)
 804a832:	8b 45 0c             	mov    0xc(%ebp),%eax
 804a835:	89 45 dc             	mov    %eax,-0x24(%ebp)
 804a838:	8b 45 10             	mov    0x10(%ebp),%eax
 804a83b:	89 45 d0             	mov    %eax,-0x30(%ebp)
 804a83e:	8b 45 14             	mov    0x14(%ebp),%eax
 804a841:	89 45 d4             	mov    %eax,-0x2c(%ebp)
 804a844:	83 7d dc 00          	cmpl   $0x0,-0x24(%ebp)
 804a848:	79 0f                	jns    804a859 <sdiv64+0x33>
 804a84a:	8b 45 d8             	mov    -0x28(%ebp),%eax
 804a84d:	8b 55 dc             	mov    -0x24(%ebp),%edx
 804a850:	f7 d8                	neg    %eax
 804a852:	83 d2 00             	adc    $0x0,%edx
 804a855:	f7 da                	neg    %edx
 804a857:	eb 06                	jmp    804a85f <sdiv64+0x39>
 804a859:	8b 45 d8             	mov    -0x28(%ebp),%eax
 804a85c:	8b 55 dc             	mov    -0x24(%ebp),%edx
 804a85f:	89 45 f8             	mov    %eax,-0x8(%ebp)
 804a862:	89 55 fc             	mov    %edx,-0x4(%ebp)
 804a865:	83 7d d4 00          	cmpl   $0x0,-0x2c(%ebp)
 804a869:	79 0f                	jns    804a87a <sdiv64+0x54>
 804a86b:	8b 45 d0             	mov    -0x30(%ebp),%eax
 804a86e:	8b 55 d4             	mov    -0x2c(%ebp),%edx
 804a871:	f7 d8                	neg    %eax
 804a873:	83 d2 00             	adc    $0x0,%edx
 804a876:	f7 da                	neg    %edx
 804a878:	eb 06                	jmp    804a880 <sdiv64+0x5a>
 804a87a:	8b 45 d0             	mov    -0x30(%ebp),%eax
 804a87d:	8b 55 d4             	mov    -0x2c(%ebp),%edx
 804a880:	89 45 f0             	mov    %eax,-0x10(%ebp)
 804a883:	89 55 f4             	mov    %edx,-0xc(%ebp)
 804a886:	8b 45 f0             	mov    -0x10(%ebp),%eax
 804a889:	8b 55 f4             	mov    -0xc(%ebp),%edx
 804a88c:	89 44 24 08          	mov    %eax,0x8(%esp)
 804a890:	89 54 24 0c          	mov    %edx,0xc(%esp)
 804a894:	8b 45 f8             	mov    -0x8(%ebp),%eax
 804a897:	8b 55 fc             	mov    -0x4(%ebp),%edx
 804a89a:	89 04 24             	mov    %eax,(%esp)
 804a89d:	89 54 24 04          	mov    %edx,0x4(%esp)
 804a8a1:	e8 41 fd ff ff       	call   804a5e7 <udiv64>
 804a8a6:	89 45 e8             	mov    %eax,-0x18(%ebp)
 804a8a9:	89 55 ec             	mov    %edx,-0x14(%ebp)
 804a8ac:	8b 45 dc             	mov    -0x24(%ebp),%eax
 804a8af:	f7 d0                	not    %eax
 804a8b1:	c1 e8 1f             	shr    $0x1f,%eax
 804a8b4:	88 c2                	mov    %al,%dl
 804a8b6:	8b 45 d4             	mov    -0x2c(%ebp),%eax
 804a8b9:	c1 e8 1f             	shr    $0x1f,%eax
 804a8bc:	30 d0                	xor    %dl,%al
 804a8be:	84 c0                	test   %al,%al
 804a8c0:	74 08                	je     804a8ca <sdiv64+0xa4>
 804a8c2:	8b 45 e8             	mov    -0x18(%ebp),%eax
 804a8c5:	8b 55 ec             	mov    -0x14(%ebp),%edx
 804a8c8:	eb 0d                	jmp    804a8d7 <sdiv64+0xb1>
 804a8ca:	8b 45 e8             	mov    -0x18(%ebp),%eax
 804a8cd:	8b 55 ec             	mov    -0x14(%ebp),%edx
 804a8d0:	f7 d8                	neg    %eax
 804a8d2:	83 d2 00             	adc    $0x0,%edx
 804a8d5:	f7 da                	neg    %edx
 804a8d7:	c9                   	leave  
 804a8d8:	c3                   	ret    

0804a8d9 <smod64>:
 804a8d9:	55                   	push   %ebp
 804a8da:	89 e5                	mov    %esp,%ebp
 804a8dc:	53                   	push   %ebx
 804a8dd:	83 ec 24             	sub    $0x24,%esp
 804a8e0:	8b 45 08             	mov    0x8(%ebp),%eax
 804a8e3:	89 45 f0             	mov    %eax,-0x10(%ebp)
 804a8e6:	8b 45 0c             	mov    0xc(%ebp),%eax
 804a8e9:	89 45 f4             	mov    %eax,-0xc(%ebp)
 804a8ec:	8b 45 10             	mov    0x10(%ebp),%eax
 804a8ef:	89 45 e8             	mov    %eax,-0x18(%ebp)
 804a8f2:	8b 45 14             	mov    0x14(%ebp),%eax
 804a8f5:	89 45 ec             	mov    %eax,-0x14(%ebp)
 804a8f8:	8b 5d f0             	mov    -0x10(%ebp),%ebx
 804a8fb:	8b 45 e8             	mov    -0x18(%ebp),%eax
 804a8fe:	8b 55 ec             	mov    -0x14(%ebp),%edx
 804a901:	89 44 24 08          	mov    %eax,0x8(%esp)
 804a905:	89 54 24 0c          	mov    %edx,0xc(%esp)
 804a909:	8b 45 f0             	mov    -0x10(%ebp),%eax
 804a90c:	8b 55 f4             	mov    -0xc(%ebp),%edx
 804a90f:	89 04 24             	mov    %eax,(%esp)
 804a912:	89 54 24 04          	mov    %edx,0x4(%esp)
 804a916:	e8 0b ff ff ff       	call   804a826 <sdiv64>
 804a91b:	89 c2                	mov    %eax,%edx
 804a91d:	8b 45 e8             	mov    -0x18(%ebp),%eax
 804a920:	0f af c2             	imul   %edx,%eax
 804a923:	29 c3                	sub    %eax,%ebx
 804a925:	89 d8                	mov    %ebx,%eax
 804a927:	83 c4 24             	add    $0x24,%esp
 804a92a:	5b                   	pop    %ebx
 804a92b:	5d                   	pop    %ebp
 804a92c:	c3                   	ret    

0804a92d <__divdi3>:
 804a92d:	55                   	push   %ebp
 804a92e:	89 e5                	mov    %esp,%ebp
 804a930:	83 ec 20             	sub    $0x20,%esp
 804a933:	8b 45 08             	mov    0x8(%ebp),%eax
 804a936:	89 45 f8             	mov    %eax,-0x8(%ebp)
 804a939:	8b 45 0c             	mov    0xc(%ebp),%eax
 804a93c:	89 45 fc             	mov    %eax,-0x4(%ebp)
 804a93f:	8b 45 10             	mov    0x10(%ebp),%eax
 804a942:	89 45 f0             	mov    %eax,-0x10(%ebp)
 804a945:	8b 45 14             	mov    0x14(%ebp),%eax
 804a948:	89 45 f4             	mov    %eax,-0xc(%ebp)
 804a94b:	8b 45 f0             	mov    -0x10(%ebp),%eax
 804a94e:	8b 55 f4             	mov    -0xc(%ebp),%edx
 804a951:	89 44 24 08          	mov    %eax,0x8(%esp)
 804a955:	89 54 24 0c          	mov    %edx,0xc(%esp)
 804a959:	8b 45 f8             	mov    -0x8(%ebp),%eax
 804a95c:	8b 55 fc             	mov    -0x4(%ebp),%edx
 804a95f:	89 04 24             	mov    %eax,(%esp)
 804a962:	89 54 24 04          	mov    %edx,0x4(%esp)
 804a966:	e8 bb fe ff ff       	call   804a826 <sdiv64>
 804a96b:	c9                   	leave  
 804a96c:	c3                   	ret    

0804a96d <__moddi3>:
 804a96d:	55                   	push   %ebp
 804a96e:	89 e5                	mov    %esp,%ebp
 804a970:	83 ec 20             	sub    $0x20,%esp
 804a973:	8b 45 08             	mov    0x8(%ebp),%eax
 804a976:	89 45 f8             	mov    %eax,-0x8(%ebp)
 804a979:	8b 45 0c             	mov    0xc(%ebp),%eax
 804a97c:	89 45 fc             	mov    %eax,-0x4(%ebp)
 804a97f:	8b 45 10             	mov    0x10(%ebp),%eax
 804a982:	89 45 f0             	mov    %eax,-0x10(%ebp)
 804a985:	8b 45 14             	mov    0x14(%ebp),%eax
 804a988:	89 45 f4             	mov    %eax,-0xc(%ebp)
 804a98b:	8b 45 f0             	mov    -0x10(%ebp),%eax
 804a98e:	8b 55 f4             	mov    -0xc(%ebp),%edx
 804a991:	89 44 24 08          	mov    %eax,0x8(%esp)
 804a995:	89 54 24 0c          	mov    %edx,0xc(%esp)
 804a999:	8b 45 f8             	mov    -0x8(%ebp),%eax
 804a99c:	8b 55 fc             	mov    -0x4(%ebp),%edx
 804a99f:	89 04 24             	mov    %eax,(%esp)
 804a9a2:	89 54 24 04          	mov    %edx,0x4(%esp)
 804a9a6:	e8 2e ff ff ff       	call   804a8d9 <smod64>
 804a9ab:	99                   	cltd   
 804a9ac:	c9                   	leave  
 804a9ad:	c3                   	ret    

0804a9ae <__udivdi3>:
 804a9ae:	55                   	push   %ebp
 804a9af:	89 e5                	mov    %esp,%ebp
 804a9b1:	83 ec 20             	sub    $0x20,%esp
 804a9b4:	8b 45 08             	mov    0x8(%ebp),%eax
 804a9b7:	89 45 f8             	mov    %eax,-0x8(%ebp)
 804a9ba:	8b 45 0c             	mov    0xc(%ebp),%eax
 804a9bd:	89 45 fc             	mov    %eax,-0x4(%ebp)
 804a9c0:	8b 45 10             	mov    0x10(%ebp),%eax
 804a9c3:	89 45 f0             	mov    %eax,-0x10(%ebp)
 804a9c6:	8b 45 14             	mov    0x14(%ebp),%eax
 804a9c9:	89 45 f4             	mov    %eax,-0xc(%ebp)
 804a9cc:	8b 45 f0             	mov    -0x10(%ebp),%eax
 804a9cf:	8b 55 f4             	mov    -0xc(%ebp),%edx
 804a9d2:	89 44 24 08          	mov    %eax,0x8(%esp)
 804a9d6:	89 54 24 0c          	mov    %edx,0xc(%esp)
 804a9da:	8b 45 f8             	mov    -0x8(%ebp),%eax
 804a9dd:	8b 55 fc             	mov    -0x4(%ebp),%edx
 804a9e0:	89 04 24             	mov    %eax,(%esp)
 804a9e3:	89 54 24 04          	mov    %edx,0x4(%esp)
 804a9e7:	e8 fb fb ff ff       	call   804a5e7 <udiv64>
 804a9ec:	c9                   	leave  
 804a9ed:	c3                   	ret    

0804a9ee <__umoddi3>:
 804a9ee:	55                   	push   %ebp
 804a9ef:	89 e5                	mov    %esp,%ebp
 804a9f1:	83 ec 20             	sub    $0x20,%esp
 804a9f4:	8b 45 08             	mov    0x8(%ebp),%eax
 804a9f7:	89 45 f8             	mov    %eax,-0x8(%ebp)
 804a9fa:	8b 45 0c             	mov    0xc(%ebp),%eax
 804a9fd:	89 45 fc             	mov    %eax,-0x4(%ebp)
 804aa00:	8b 45 10             	mov    0x10(%ebp),%eax
 804aa03:	89 45 f0             	mov    %eax,-0x10(%ebp)
 804aa06:	8b 45 14             	mov    0x14(%ebp),%eax
 804aa09:	89 45 f4             	mov    %eax,-0xc(%ebp)
 804aa0c:	8b 45 f0             	mov    -0x10(%ebp),%eax
 804aa0f:	8b 55 f4             	mov    -0xc(%ebp),%edx
 804aa12:	89 44 24 08          	mov    %eax,0x8(%esp)
 804aa16:	89 54 24 0c          	mov    %edx,0xc(%esp)
 804aa1a:	8b 45 f8             	mov    -0x8(%ebp),%eax
 804aa1d:	8b 55 fc             	mov    -0x4(%ebp),%edx
 804aa20:	89 04 24             	mov    %eax,(%esp)
 804aa23:	89 54 24 04          	mov    %edx,0x4(%esp)
 804aa27:	e8 a6 fd ff ff       	call   804a7d2 <umod64>
 804aa2c:	ba 00 00 00 00       	mov    $0x0,%edx
 804aa31:	c9                   	leave  
 804aa32:	c3                   	ret    

0804aa33 <debug_panic>:
 804aa33:	55                   	push   %ebp
 804aa34:	89 e5                	mov    %esp,%ebp
 804aa36:	83 ec 28             	sub    $0x28,%esp
 804aa39:	8b 45 10             	mov    0x10(%ebp),%eax
 804aa3c:	89 44 24 0c          	mov    %eax,0xc(%esp)
 804aa40:	8b 45 0c             	mov    0xc(%ebp),%eax
 804aa43:	89 44 24 08          	mov    %eax,0x8(%esp)
 804aa47:	8b 45 08             	mov    0x8(%ebp),%eax
 804aa4a:	89 44 24 04          	mov    %eax,0x4(%esp)
 804aa4e:	c7 04 24 dc b7 04 08 	movl   $0x804b7dc,(%esp)
 804aa55:	e8 6e e1 ff ff       	call   8048bc8 <printf>
 804aa5a:	8d 45 18             	lea    0x18(%ebp),%eax
 804aa5d:	89 45 f4             	mov    %eax,-0xc(%ebp)
 804aa60:	8b 45 f4             	mov    -0xc(%ebp),%eax
 804aa63:	89 44 24 04          	mov    %eax,0x4(%esp)
 804aa67:	8b 45 14             	mov    0x14(%ebp),%eax
 804aa6a:	89 04 24             	mov    %eax,(%esp)
 804aa6d:	e8 9f 04 00 00       	call   804af11 <vprintf>
 804aa72:	c7 04 24 0a 00 00 00 	movl   $0xa,(%esp)
 804aa79:	e8 1d 05 00 00       	call   804af9b <putchar>
 804aa7e:	e8 2b 06 00 00       	call   804b0ae <debug_backtrace>
 804aa83:	c7 04 24 01 00 00 00 	movl   $0x1,(%esp)
 804aa8a:	e8 4c 00 00 00       	call   804aadb <exit>

0804aa8f <practice>:
 804aa8f:	55                   	push   %ebp
 804aa90:	89 e5                	mov    %esp,%ebp
 804aa92:	83 ec 10             	sub    $0x10,%esp
 804aa95:	ff 75 08             	pushl  0x8(%ebp)
 804aa98:	6a 0d                	push   $0xd
 804aa9a:	cd 30                	int    $0x30
 804aa9c:	83 c4 08             	add    $0x8,%esp
 804aa9f:	89 45 fc             	mov    %eax,-0x4(%ebp)
 804aaa2:	8b 45 fc             	mov    -0x4(%ebp),%eax
 804aaa5:	c9                   	leave  
 804aaa6:	c3                   	ret    

0804aaa7 <halt>:
 804aaa7:	55                   	push   %ebp
 804aaa8:	89 e5                	mov    %esp,%ebp
 804aaaa:	83 ec 28             	sub    $0x28,%esp
 804aaad:	6a 00                	push   $0x0
 804aaaf:	cd 30                	int    $0x30
 804aab1:	83 c4 04             	add    $0x4,%esp
 804aab4:	89 45 f4             	mov    %eax,-0xc(%ebp)
 804aab7:	c7 44 24 0c 04 b8 04 	movl   $0x804b804,0xc(%esp)
 804aabe:	08 
 804aabf:	c7 44 24 08 40 b8 04 	movl   $0x804b840,0x8(%esp)
 804aac6:	08 
 804aac7:	c7 44 24 04 47 00 00 	movl   $0x47,0x4(%esp)
 804aace:	00 
 804aacf:	c7 04 24 26 b8 04 08 	movl   $0x804b826,(%esp)
 804aad6:	e8 58 ff ff ff       	call   804aa33 <debug_panic>

0804aadb <exit>:
 804aadb:	55                   	push   %ebp
 804aadc:	89 e5                	mov    %esp,%ebp
 804aade:	83 ec 28             	sub    $0x28,%esp
 804aae1:	ff 75 08             	pushl  0x8(%ebp)
 804aae4:	6a 01                	push   $0x1
 804aae6:	cd 30                	int    $0x30
 804aae8:	83 c4 08             	add    $0x8,%esp
 804aaeb:	89 45 f4             	mov    %eax,-0xc(%ebp)
 804aaee:	c7 44 24 0c 04 b8 04 	movl   $0x804b804,0xc(%esp)
 804aaf5:	08 
 804aaf6:	c7 44 24 08 48 b8 04 	movl   $0x804b848,0x8(%esp)
 804aafd:	08 
 804aafe:	c7 44 24 04 4c 00 00 	movl   $0x4c,0x4(%esp)
 804ab05:	00 
 804ab06:	c7 04 24 26 b8 04 08 	movl   $0x804b826,(%esp)
 804ab0d:	e8 21 ff ff ff       	call   804aa33 <debug_panic>

0804ab12 <exec>:
 804ab12:	55                   	push   %ebp
 804ab13:	89 e5                	mov    %esp,%ebp
 804ab15:	83 ec 10             	sub    $0x10,%esp
 804ab18:	ff 75 08             	pushl  0x8(%ebp)
 804ab1b:	6a 02                	push   $0x2
 804ab1d:	cd 30                	int    $0x30
 804ab1f:	83 c4 08             	add    $0x8,%esp
 804ab22:	89 45 fc             	mov    %eax,-0x4(%ebp)
 804ab25:	8b 45 fc             	mov    -0x4(%ebp),%eax
 804ab28:	c9                   	leave  
 804ab29:	c3                   	ret    

0804ab2a <wait>:
 804ab2a:	55                   	push   %ebp
 804ab2b:	89 e5                	mov    %esp,%ebp
 804ab2d:	83 ec 10             	sub    $0x10,%esp
 804ab30:	ff 75 08             	pushl  0x8(%ebp)
 804ab33:	6a 03                	push   $0x3
 804ab35:	cd 30                	int    $0x30
 804ab37:	83 c4 08             	add    $0x8,%esp
 804ab3a:	89 45 fc             	mov    %eax,-0x4(%ebp)
 804ab3d:	8b 45 fc             	mov    -0x4(%ebp),%eax
 804ab40:	c9                   	leave  
 804ab41:	c3                   	ret    

0804ab42 <create>:
 804ab42:	55                   	push   %ebp
 804ab43:	89 e5                	mov    %esp,%ebp
 804ab45:	83 ec 10             	sub    $0x10,%esp
 804ab48:	8b 45 08             	mov    0x8(%ebp),%eax
 804ab4b:	8b 55 0c             	mov    0xc(%ebp),%edx
 804ab4e:	52                   	push   %edx
 804ab4f:	50                   	push   %eax
 804ab50:	6a 04                	push   $0x4
 804ab52:	cd 30                	int    $0x30
 804ab54:	83 c4 0c             	add    $0xc,%esp
 804ab57:	89 45 fc             	mov    %eax,-0x4(%ebp)
 804ab5a:	8b 45 fc             	mov    -0x4(%ebp),%eax
 804ab5d:	85 c0                	test   %eax,%eax
 804ab5f:	0f 95 c0             	setne  %al
 804ab62:	c9                   	leave  
 804ab63:	c3                   	ret    

0804ab64 <remove>:
 804ab64:	55                   	push   %ebp
 804ab65:	89 e5                	mov    %esp,%ebp
 804ab67:	83 ec 10             	sub    $0x10,%esp
 804ab6a:	ff 75 08             	pushl  0x8(%ebp)
 804ab6d:	6a 05                	push   $0x5
 804ab6f:	cd 30                	int    $0x30
 804ab71:	83 c4 08             	add    $0x8,%esp
 804ab74:	89 45 fc             	mov    %eax,-0x4(%ebp)
 804ab77:	8b 45 fc             	mov    -0x4(%ebp),%eax
 804ab7a:	85 c0                	test   %eax,%eax
 804ab7c:	0f 95 c0             	setne  %al
 804ab7f:	c9                   	leave  
 804ab80:	c3                   	ret    

0804ab81 <open>:
 804ab81:	55                   	push   %ebp
 804ab82:	89 e5                	mov    %esp,%ebp
 804ab84:	83 ec 10             	sub    $0x10,%esp
 804ab87:	ff 75 08             	pushl  0x8(%ebp)
 804ab8a:	6a 06                	push   $0x6
 804ab8c:	cd 30                	int    $0x30
 804ab8e:	83 c4 08             	add    $0x8,%esp
 804ab91:	89 45 fc             	mov    %eax,-0x4(%ebp)
 804ab94:	8b 45 fc             	mov    -0x4(%ebp),%eax
 804ab97:	c9                   	leave  
 804ab98:	c3                   	ret    

0804ab99 <filesize>:
 804ab99:	55                   	push   %ebp
 804ab9a:	89 e5                	mov    %esp,%ebp
 804ab9c:	83 ec 10             	sub    $0x10,%esp
 804ab9f:	ff 75 08             	pushl  0x8(%ebp)
 804aba2:	6a 07                	push   $0x7
 804aba4:	cd 30                	int    $0x30
 804aba6:	83 c4 08             	add    $0x8,%esp
 804aba9:	89 45 fc             	mov    %eax,-0x4(%ebp)
 804abac:	8b 45 fc             	mov    -0x4(%ebp),%eax
 804abaf:	c9                   	leave  
 804abb0:	c3                   	ret    

0804abb1 <read>:
 804abb1:	55                   	push   %ebp
 804abb2:	89 e5                	mov    %esp,%ebp
 804abb4:	83 ec 10             	sub    $0x10,%esp
 804abb7:	8b 45 08             	mov    0x8(%ebp),%eax
 804abba:	8b 55 0c             	mov    0xc(%ebp),%edx
 804abbd:	8b 4d 10             	mov    0x10(%ebp),%ecx
 804abc0:	51                   	push   %ecx
 804abc1:	52                   	push   %edx
 804abc2:	50                   	push   %eax
 804abc3:	6a 08                	push   $0x8
 804abc5:	cd 30                	int    $0x30
 804abc7:	83 c4 10             	add    $0x10,%esp
 804abca:	89 45 fc             	mov    %eax,-0x4(%ebp)
 804abcd:	8b 45 fc             	mov    -0x4(%ebp),%eax
 804abd0:	c9                   	leave  
 804abd1:	c3                   	ret    

0804abd2 <write>:
 804abd2:	55                   	push   %ebp
 804abd3:	89 e5                	mov    %esp,%ebp
 804abd5:	83 ec 10             	sub    $0x10,%esp
 804abd8:	8b 45 08             	mov    0x8(%ebp),%eax
 804abdb:	8b 55 0c             	mov    0xc(%ebp),%edx
 804abde:	8b 4d 10             	mov    0x10(%ebp),%ecx
 804abe1:	51                   	push   %ecx
 804abe2:	52                   	push   %edx
 804abe3:	50                   	push   %eax
 804abe4:	6a 09                	push   $0x9
 804abe6:	cd 30                	int    $0x30
 804abe8:	83 c4 10             	add    $0x10,%esp
 804abeb:	89 45 fc             	mov    %eax,-0x4(%ebp)
 804abee:	8b 45 fc             	mov    -0x4(%ebp),%eax
 804abf1:	c9                   	leave  
 804abf2:	c3                   	ret    

0804abf3 <seek>:
 804abf3:	55                   	push   %ebp
 804abf4:	89 e5                	mov    %esp,%ebp
 804abf6:	83 ec 10             	sub    $0x10,%esp
 804abf9:	8b 45 08             	mov    0x8(%ebp),%eax
 804abfc:	8b 55 0c             	mov    0xc(%ebp),%edx
 804abff:	52                   	push   %edx
 804ac00:	50                   	push   %eax
 804ac01:	6a 0a                	push   $0xa
 804ac03:	cd 30                	int    $0x30
 804ac05:	83 c4 0c             	add    $0xc,%esp
 804ac08:	89 45 fc             	mov    %eax,-0x4(%ebp)
 804ac0b:	90                   	nop
 804ac0c:	c9                   	leave  
 804ac0d:	c3                   	ret    

0804ac0e <tell>:
 804ac0e:	55                   	push   %ebp
 804ac0f:	89 e5                	mov    %esp,%ebp
 804ac11:	83 ec 10             	sub    $0x10,%esp
 804ac14:	ff 75 08             	pushl  0x8(%ebp)
 804ac17:	6a 0b                	push   $0xb
 804ac19:	cd 30                	int    $0x30
 804ac1b:	83 c4 08             	add    $0x8,%esp
 804ac1e:	89 45 fc             	mov    %eax,-0x4(%ebp)
 804ac21:	8b 45 fc             	mov    -0x4(%ebp),%eax
 804ac24:	c9                   	leave  
 804ac25:	c3                   	ret    

0804ac26 <close>:
 804ac26:	55                   	push   %ebp
 804ac27:	89 e5                	mov    %esp,%ebp
 804ac29:	83 ec 10             	sub    $0x10,%esp
 804ac2c:	ff 75 08             	pushl  0x8(%ebp)
 804ac2f:	6a 0c                	push   $0xc
 804ac31:	cd 30                	int    $0x30
 804ac33:	83 c4 08             	add    $0x8,%esp
 804ac36:	89 45 fc             	mov    %eax,-0x4(%ebp)
 804ac39:	90                   	nop
 804ac3a:	c9                   	leave  
 804ac3b:	c3                   	ret    

0804ac3c <mmap>:
 804ac3c:	55                   	push   %ebp
 804ac3d:	89 e5                	mov    %esp,%ebp
 804ac3f:	83 ec 10             	sub    $0x10,%esp
 804ac42:	8b 45 08             	mov    0x8(%ebp),%eax
 804ac45:	8b 55 0c             	mov    0xc(%ebp),%edx
 804ac48:	52                   	push   %edx
 804ac49:	50                   	push   %eax
 804ac4a:	6a 19                	push   $0x19
 804ac4c:	cd 30                	int    $0x30
 804ac4e:	83 c4 0c             	add    $0xc,%esp
 804ac51:	89 45 fc             	mov    %eax,-0x4(%ebp)
 804ac54:	8b 45 fc             	mov    -0x4(%ebp),%eax
 804ac57:	c9                   	leave  
 804ac58:	c3                   	ret    

0804ac59 <munmap>:
 804ac59:	55                   	push   %ebp
 804ac5a:	89 e5                	mov    %esp,%ebp
 804ac5c:	83 ec 10             	sub    $0x10,%esp
 804ac5f:	ff 75 08             	pushl  0x8(%ebp)
 804ac62:	6a 1a                	push   $0x1a
 804ac64:	cd 30                	int    $0x30
 804ac66:	83 c4 08             	add    $0x8,%esp
 804ac69:	89 45 fc             	mov    %eax,-0x4(%ebp)
 804ac6c:	90                   	nop
 804ac6d:	c9                   	leave  
 804ac6e:	c3                   	ret    

0804ac6f <chdir>:
 804ac6f:	55                   	push   %ebp
 804ac70:	89 e5                	mov    %esp,%ebp
 804ac72:	83 ec 10             	sub    $0x10,%esp
 804ac75:	ff 75 08             	pushl  0x8(%ebp)
 804ac78:	6a 1b                	push   $0x1b
 804ac7a:	cd 30                	int    $0x30
 804ac7c:	83 c4 08             	add    $0x8,%esp
 804ac7f:	89 45 fc             	mov    %eax,-0x4(%ebp)
 804ac82:	8b 45 fc             	mov    -0x4(%ebp),%eax
 804ac85:	85 c0                	test   %eax,%eax
 804ac87:	0f 95 c0             	setne  %al
 804ac8a:	c9                   	leave  
 804ac8b:	c3                   	ret    

0804ac8c <mkdir>:
 804ac8c:	55                   	push   %ebp
 804ac8d:	89 e5                	mov    %esp,%ebp
 804ac8f:	83 ec 10             	sub    $0x10,%esp
 804ac92:	ff 75 08             	pushl  0x8(%ebp)
 804ac95:	6a 1c                	push   $0x1c
 804ac97:	cd 30                	int    $0x30
 804ac99:	83 c4 08             	add    $0x8,%esp
 804ac9c:	89 45 fc             	mov    %eax,-0x4(%ebp)
 804ac9f:	8b 45 fc             	mov    -0x4(%ebp),%eax
 804aca2:	85 c0                	test   %eax,%eax
 804aca4:	0f 95 c0             	setne  %al
 804aca7:	c9                   	leave  
 804aca8:	c3                   	ret    

0804aca9 <readdir>:
 804aca9:	55                   	push   %ebp
 804acaa:	89 e5                	mov    %esp,%ebp
 804acac:	83 ec 10             	sub    $0x10,%esp
 804acaf:	8b 45 08             	mov    0x8(%ebp),%eax
 804acb2:	8b 55 0c             	mov    0xc(%ebp),%edx
 804acb5:	52                   	push   %edx
 804acb6:	50                   	push   %eax
 804acb7:	6a 1d                	push   $0x1d
 804acb9:	cd 30                	int    $0x30
 804acbb:	83 c4 0c             	add    $0xc,%esp
 804acbe:	89 45 fc             	mov    %eax,-0x4(%ebp)
 804acc1:	8b 45 fc             	mov    -0x4(%ebp),%eax
 804acc4:	85 c0                	test   %eax,%eax
 804acc6:	0f 95 c0             	setne  %al
 804acc9:	c9                   	leave  
 804acca:	c3                   	ret    

0804accb <isdir>:
 804accb:	55                   	push   %ebp
 804accc:	89 e5                	mov    %esp,%ebp
 804acce:	83 ec 10             	sub    $0x10,%esp
 804acd1:	ff 75 08             	pushl  0x8(%ebp)
 804acd4:	6a 1e                	push   $0x1e
 804acd6:	cd 30                	int    $0x30
 804acd8:	83 c4 08             	add    $0x8,%esp
 804acdb:	89 45 fc             	mov    %eax,-0x4(%ebp)
 804acde:	8b 45 fc             	mov    -0x4(%ebp),%eax
 804ace1:	85 c0                	test   %eax,%eax
 804ace3:	0f 95 c0             	setne  %al
 804ace6:	c9                   	leave  
 804ace7:	c3                   	ret    

0804ace8 <inumber>:
 804ace8:	55                   	push   %ebp
 804ace9:	89 e5                	mov    %esp,%ebp
 804aceb:	83 ec 10             	sub    $0x10,%esp
 804acee:	ff 75 08             	pushl  0x8(%ebp)
 804acf1:	6a 1f                	push   $0x1f
 804acf3:	cd 30                	int    $0x30
 804acf5:	83 c4 08             	add    $0x8,%esp
 804acf8:	89 45 fc             	mov    %eax,-0x4(%ebp)
 804acfb:	8b 45 fc             	mov    -0x4(%ebp),%eax
 804acfe:	c9                   	leave  
 804acff:	c3                   	ret    

0804ad00 <compute_e>:
 804ad00:	55                   	push   %ebp
 804ad01:	89 e5                	mov    %esp,%ebp
 804ad03:	83 ec 10             	sub    $0x10,%esp
 804ad06:	ff 75 08             	pushl  0x8(%ebp)
 804ad09:	6a 0e                	push   $0xe
 804ad0b:	cd 30                	int    $0x30
 804ad0d:	83 c4 08             	add    $0x8,%esp
 804ad10:	89 45 fc             	mov    %eax,-0x4(%ebp)
 804ad13:	d9 45 fc             	flds   -0x4(%ebp)
 804ad16:	c9                   	leave  
 804ad17:	c3                   	ret    

0804ad18 <sys_pthread_create>:
 804ad18:	55                   	push   %ebp
 804ad19:	89 e5                	mov    %esp,%ebp
 804ad1b:	83 ec 10             	sub    $0x10,%esp
 804ad1e:	8b 45 08             	mov    0x8(%ebp),%eax
 804ad21:	8b 55 0c             	mov    0xc(%ebp),%edx
 804ad24:	8b 4d 10             	mov    0x10(%ebp),%ecx
 804ad27:	51                   	push   %ecx
 804ad28:	52                   	push   %edx
 804ad29:	50                   	push   %eax
 804ad2a:	6a 0f                	push   $0xf
 804ad2c:	cd 30                	int    $0x30
 804ad2e:	83 c4 10             	add    $0x10,%esp
 804ad31:	89 45 fc             	mov    %eax,-0x4(%ebp)
 804ad34:	8b 45 fc             	mov    -0x4(%ebp),%eax
 804ad37:	c9                   	leave  
 804ad38:	c3                   	ret    

0804ad39 <sys_pthread_exit>:
 804ad39:	55                   	push   %ebp
 804ad3a:	89 e5                	mov    %esp,%ebp
 804ad3c:	83 ec 28             	sub    $0x28,%esp
 804ad3f:	6a 10                	push   $0x10
 804ad41:	cd 30                	int    $0x30
 804ad43:	83 c4 04             	add    $0x4,%esp
 804ad46:	89 45 f4             	mov    %eax,-0xc(%ebp)
 804ad49:	c7 44 24 0c 04 b8 04 	movl   $0x804b804,0xc(%esp)
 804ad50:	08 
 804ad51:	c7 44 24 08 50 b8 04 	movl   $0x804b850,0x8(%esp)
 804ad58:	08 
 804ad59:	c7 44 24 04 7f 00 00 	movl   $0x7f,0x4(%esp)
 804ad60:	00 
 804ad61:	c7 04 24 26 b8 04 08 	movl   $0x804b826,(%esp)
 804ad68:	e8 c6 fc ff ff       	call   804aa33 <debug_panic>

0804ad6d <sys_pthread_join>:
 804ad6d:	55                   	push   %ebp
 804ad6e:	89 e5                	mov    %esp,%ebp
 804ad70:	83 ec 10             	sub    $0x10,%esp
 804ad73:	ff 75 08             	pushl  0x8(%ebp)
 804ad76:	6a 11                	push   $0x11
 804ad78:	cd 30                	int    $0x30
 804ad7a:	83 c4 08             	add    $0x8,%esp
 804ad7d:	89 45 fc             	mov    %eax,-0x4(%ebp)
 804ad80:	8b 45 fc             	mov    -0x4(%ebp),%eax
 804ad83:	c9                   	leave  
 804ad84:	c3                   	ret    

0804ad85 <lock_init>:
 804ad85:	55                   	push   %ebp
 804ad86:	89 e5                	mov    %esp,%ebp
 804ad88:	83 ec 10             	sub    $0x10,%esp
 804ad8b:	ff 75 08             	pushl  0x8(%ebp)
 804ad8e:	6a 12                	push   $0x12
 804ad90:	cd 30                	int    $0x30
 804ad92:	83 c4 08             	add    $0x8,%esp
 804ad95:	89 45 fc             	mov    %eax,-0x4(%ebp)
 804ad98:	8b 45 fc             	mov    -0x4(%ebp),%eax
 804ad9b:	85 c0                	test   %eax,%eax
 804ad9d:	0f 95 c0             	setne  %al
 804ada0:	c9                   	leave  
 804ada1:	c3                   	ret    

0804ada2 <lock_acquire>:
 804ada2:	55                   	push   %ebp
 804ada3:	89 e5                	mov    %esp,%ebp
 804ada5:	83 ec 28             	sub    $0x28,%esp
 804ada8:	ff 75 08             	pushl  0x8(%ebp)
 804adab:	6a 13                	push   $0x13
 804adad:	cd 30                	int    $0x30
 804adaf:	83 c4 08             	add    $0x8,%esp
 804adb2:	89 45 f4             	mov    %eax,-0xc(%ebp)
 804adb5:	8b 45 f4             	mov    -0xc(%ebp),%eax
 804adb8:	85 c0                	test   %eax,%eax
 804adba:	0f 95 c0             	setne  %al
 804adbd:	88 45 f3             	mov    %al,-0xd(%ebp)
 804adc0:	0f b6 45 f3          	movzbl -0xd(%ebp),%eax
 804adc4:	34 01                	xor    $0x1,%al
 804adc6:	84 c0                	test   %al,%al
 804adc8:	74 0c                	je     804add6 <lock_acquire+0x34>
 804adca:	c7 04 24 01 00 00 00 	movl   $0x1,(%esp)
 804add1:	e8 05 fd ff ff       	call   804aadb <exit>
 804add6:	90                   	nop
 804add7:	c9                   	leave  
 804add8:	c3                   	ret    

0804add9 <lock_release>:
 804add9:	55                   	push   %ebp
 804adda:	89 e5                	mov    %esp,%ebp
 804addc:	83 ec 28             	sub    $0x28,%esp
 804addf:	ff 75 08             	pushl  0x8(%ebp)
 804ade2:	6a 14                	push   $0x14
 804ade4:	cd 30                	int    $0x30
 804ade6:	83 c4 08             	add    $0x8,%esp
 804ade9:	89 45 f4             	mov    %eax,-0xc(%ebp)
 804adec:	8b 45 f4             	mov    -0xc(%ebp),%eax
 804adef:	85 c0                	test   %eax,%eax
 804adf1:	0f 95 c0             	setne  %al
 804adf4:	88 45 f3             	mov    %al,-0xd(%ebp)
 804adf7:	0f b6 45 f3          	movzbl -0xd(%ebp),%eax
 804adfb:	34 01                	xor    $0x1,%al
 804adfd:	84 c0                	test   %al,%al
 804adff:	74 0c                	je     804ae0d <lock_release+0x34>
 804ae01:	c7 04 24 01 00 00 00 	movl   $0x1,(%esp)
 804ae08:	e8 ce fc ff ff       	call   804aadb <exit>
 804ae0d:	90                   	nop
 804ae0e:	c9                   	leave  
 804ae0f:	c3                   	ret    

0804ae10 <sema_init>:
 804ae10:	55                   	push   %ebp
 804ae11:	89 e5                	mov    %esp,%ebp
 804ae13:	83 ec 10             	sub    $0x10,%esp
 804ae16:	8b 45 08             	mov    0x8(%ebp),%eax
 804ae19:	8b 55 0c             	mov    0xc(%ebp),%edx
 804ae1c:	52                   	push   %edx
 804ae1d:	50                   	push   %eax
 804ae1e:	6a 15                	push   $0x15
 804ae20:	cd 30                	int    $0x30
 804ae22:	83 c4 0c             	add    $0xc,%esp
 804ae25:	89 45 fc             	mov    %eax,-0x4(%ebp)
 804ae28:	8b 45 fc             	mov    -0x4(%ebp),%eax
 804ae2b:	85 c0                	test   %eax,%eax
 804ae2d:	0f 95 c0             	setne  %al
 804ae30:	c9                   	leave  
 804ae31:	c3                   	ret    

0804ae32 <sema_down>:
 804ae32:	55                   	push   %ebp
 804ae33:	89 e5                	mov    %esp,%ebp
 804ae35:	83 ec 28             	sub    $0x28,%esp
 804ae38:	ff 75 08             	pushl  0x8(%ebp)
 804ae3b:	6a 16                	push   $0x16
 804ae3d:	cd 30                	int    $0x30
 804ae3f:	83 c4 08             	add    $0x8,%esp
 804ae42:	89 45 f4             	mov    %eax,-0xc(%ebp)
 804ae45:	8b 45 f4             	mov    -0xc(%ebp),%eax
 804ae48:	85 c0                	test   %eax,%eax
 804ae4a:	0f 95 c0             	setne  %al
 804ae4d:	88 45 f3             	mov    %al,-0xd(%ebp)
 804ae50:	0f b6 45 f3          	movzbl -0xd(%ebp),%eax
 804ae54:	34 01                	xor    $0x1,%al
 804ae56:	84 c0                	test   %al,%al
 804ae58:	74 0c                	je     804ae66 <sema_down+0x34>
 804ae5a:	c7 04 24 01 00 00 00 	movl   $0x1,(%esp)
 804ae61:	e8 75 fc ff ff       	call   804aadb <exit>
 804ae66:	90                   	nop
 804ae67:	c9                   	leave  
 804ae68:	c3                   	ret    

0804ae69 <sema_up>:
 804ae69:	55                   	push   %ebp
 804ae6a:	89 e5                	mov    %esp,%ebp
 804ae6c:	83 ec 28             	sub    $0x28,%esp
 804ae6f:	ff 75 08             	pushl  0x8(%ebp)
 804ae72:	6a 17                	push   $0x17
 804ae74:	cd 30                	int    $0x30
 804ae76:	83 c4 08             	add    $0x8,%esp
 804ae79:	89 45 f4             	mov    %eax,-0xc(%ebp)
 804ae7c:	8b 45 f4             	mov    -0xc(%ebp),%eax
 804ae7f:	85 c0                	test   %eax,%eax
 804ae81:	0f 95 c0             	setne  %al
 804ae84:	88 45 f3             	mov    %al,-0xd(%ebp)
 804ae87:	0f b6 45 f3          	movzbl -0xd(%ebp),%eax
 804ae8b:	34 01                	xor    $0x1,%al
 804ae8d:	84 c0                	test   %al,%al
 804ae8f:	74 0c                	je     804ae9d <sema_up+0x34>
 804ae91:	c7 04 24 01 00 00 00 	movl   $0x1,(%esp)
 804ae98:	e8 3e fc ff ff       	call   804aadb <exit>
 804ae9d:	90                   	nop
 804ae9e:	c9                   	leave  
 804ae9f:	c3                   	ret    

0804aea0 <get_tid>:
 804aea0:	55                   	push   %ebp
 804aea1:	89 e5                	mov    %esp,%ebp
 804aea3:	83 ec 10             	sub    $0x10,%esp
 804aea6:	6a 18                	push   $0x18
 804aea8:	cd 30                	int    $0x30
 804aeaa:	83 c4 04             	add    $0x4,%esp
 804aead:	89 45 fc             	mov    %eax,-0x4(%ebp)
 804aeb0:	8b 45 fc             	mov    -0x4(%ebp),%eax
 804aeb3:	c9                   	leave  
 804aeb4:	c3                   	ret    

0804aeb5 <pthread_create>:
 804aeb5:	55                   	push   %ebp
 804aeb6:	89 e5                	mov    %esp,%ebp
 804aeb8:	83 ec 18             	sub    $0x18,%esp
 804aebb:	8b 45 0c             	mov    0xc(%ebp),%eax
 804aebe:	89 44 24 08          	mov    %eax,0x8(%esp)
 804aec2:	8b 45 08             	mov    0x8(%ebp),%eax
 804aec5:	89 44 24 04          	mov    %eax,0x4(%esp)
 804aec9:	c7 04 24 fb ae 04 08 	movl   $0x804aefb,(%esp)
 804aed0:	e8 43 fe ff ff       	call   804ad18 <sys_pthread_create>
 804aed5:	c9                   	leave  
 804aed6:	c3                   	ret    

0804aed7 <pthread_exit>:
 804aed7:	55                   	push   %ebp
 804aed8:	89 e5                	mov    %esp,%ebp
 804aeda:	83 ec 08             	sub    $0x8,%esp
 804aedd:	e8 57 fe ff ff       	call   804ad39 <sys_pthread_exit>

0804aee2 <pthread_join>:
 804aee2:	55                   	push   %ebp
 804aee3:	89 e5                	mov    %esp,%ebp
 804aee5:	83 ec 18             	sub    $0x18,%esp
 804aee8:	8b 45 08             	mov    0x8(%ebp),%eax
 804aeeb:	89 04 24             	mov    %eax,(%esp)
 804aeee:	e8 7a fe ff ff       	call   804ad6d <sys_pthread_join>
 804aef3:	83 f8 ff             	cmp    $0xffffffff,%eax
 804aef6:	0f 95 c0             	setne  %al
 804aef9:	c9                   	leave  
 804aefa:	c3                   	ret    

0804aefb <_pthread_start_stub>:
 804aefb:	55                   	push   %ebp
 804aefc:	89 e5                	mov    %esp,%ebp
 804aefe:	83 ec 18             	sub    $0x18,%esp
 804af01:	8b 45 0c             	mov    0xc(%ebp),%eax
 804af04:	89 04 24             	mov    %eax,(%esp)
 804af07:	8b 45 08             	mov    0x8(%ebp),%eax
 804af0a:	ff d0                	call   *%eax
 804af0c:	e8 c6 ff ff ff       	call   804aed7 <pthread_exit>

0804af11 <vprintf>:
 804af11:	55                   	push   %ebp
 804af12:	89 e5                	mov    %esp,%ebp
 804af14:	83 ec 18             	sub    $0x18,%esp
 804af17:	8b 45 0c             	mov    0xc(%ebp),%eax
 804af1a:	89 44 24 08          	mov    %eax,0x8(%esp)
 804af1e:	8b 45 08             	mov    0x8(%ebp),%eax
 804af21:	89 44 24 04          	mov    %eax,0x4(%esp)
 804af25:	c7 04 24 01 00 00 00 	movl   $0x1,(%esp)
 804af2c:	e8 96 00 00 00       	call   804afc7 <vhprintf>
 804af31:	c9                   	leave  
 804af32:	c3                   	ret    

0804af33 <hprintf>:
 804af33:	55                   	push   %ebp
 804af34:	89 e5                	mov    %esp,%ebp
 804af36:	83 ec 28             	sub    $0x28,%esp
 804af39:	8d 45 10             	lea    0x10(%ebp),%eax
 804af3c:	89 45 f0             	mov    %eax,-0x10(%ebp)
 804af3f:	8b 45 f0             	mov    -0x10(%ebp),%eax
 804af42:	89 44 24 08          	mov    %eax,0x8(%esp)
 804af46:	8b 45 0c             	mov    0xc(%ebp),%eax
 804af49:	89 44 24 04          	mov    %eax,0x4(%esp)
 804af4d:	8b 45 08             	mov    0x8(%ebp),%eax
 804af50:	89 04 24             	mov    %eax,(%esp)
 804af53:	e8 6f 00 00 00       	call   804afc7 <vhprintf>
 804af58:	89 45 f4             	mov    %eax,-0xc(%ebp)
 804af5b:	8b 45 f4             	mov    -0xc(%ebp),%eax
 804af5e:	c9                   	leave  
 804af5f:	c3                   	ret    

0804af60 <puts>:
 804af60:	55                   	push   %ebp
 804af61:	89 e5                	mov    %esp,%ebp
 804af63:	83 ec 18             	sub    $0x18,%esp
 804af66:	8b 45 08             	mov    0x8(%ebp),%eax
 804af69:	89 04 24             	mov    %eax,(%esp)
 804af6c:	e8 ad f3 ff ff       	call   804a31e <strlen>
 804af71:	89 44 24 08          	mov    %eax,0x8(%esp)
 804af75:	8b 45 08             	mov    0x8(%ebp),%eax
 804af78:	89 44 24 04          	mov    %eax,0x4(%esp)
 804af7c:	c7 04 24 01 00 00 00 	movl   $0x1,(%esp)
 804af83:	e8 4a fc ff ff       	call   804abd2 <write>
 804af88:	c7 04 24 0a 00 00 00 	movl   $0xa,(%esp)
 804af8f:	e8 07 00 00 00       	call   804af9b <putchar>
 804af94:	b8 00 00 00 00       	mov    $0x0,%eax
 804af99:	c9                   	leave  
 804af9a:	c3                   	ret    

0804af9b <putchar>:
 804af9b:	55                   	push   %ebp
 804af9c:	89 e5                	mov    %esp,%ebp
 804af9e:	83 ec 28             	sub    $0x28,%esp
 804afa1:	8b 45 08             	mov    0x8(%ebp),%eax
 804afa4:	88 45 f7             	mov    %al,-0x9(%ebp)
 804afa7:	c7 44 24 08 01 00 00 	movl   $0x1,0x8(%esp)
 804afae:	00 
 804afaf:	8d 45 f7             	lea    -0x9(%ebp),%eax
 804afb2:	89 44 24 04          	mov    %eax,0x4(%esp)
 804afb6:	c7 04 24 01 00 00 00 	movl   $0x1,(%esp)
 804afbd:	e8 10 fc ff ff       	call   804abd2 <write>
 804afc2:	8b 45 08             	mov    0x8(%ebp),%eax
 804afc5:	c9                   	leave  
 804afc6:	c3                   	ret    

0804afc7 <vhprintf>:
 804afc7:	55                   	push   %ebp
 804afc8:	89 e5                	mov    %esp,%ebp
 804afca:	83 ec 68             	sub    $0x68,%esp
 804afcd:	8d 45 ac             	lea    -0x54(%ebp),%eax
 804afd0:	89 45 ec             	mov    %eax,-0x14(%ebp)
 804afd3:	c7 45 f0 00 00 00 00 	movl   $0x0,-0x10(%ebp)
 804afda:	8b 45 08             	mov    0x8(%ebp),%eax
 804afdd:	89 45 f4             	mov    %eax,-0xc(%ebp)
 804afe0:	8d 45 ac             	lea    -0x54(%ebp),%eax
 804afe3:	89 44 24 0c          	mov    %eax,0xc(%esp)
 804afe7:	c7 44 24 08 11 b0 04 	movl   $0x804b011,0x8(%esp)
 804afee:	08 
 804afef:	8b 45 10             	mov    0x10(%ebp),%eax
 804aff2:	89 44 24 04          	mov    %eax,0x4(%esp)
 804aff6:	8b 45 0c             	mov    0xc(%ebp),%eax
 804aff9:	89 04 24             	mov    %eax,(%esp)
 804affc:	e8 ed db ff ff       	call   8048bee <__vprintf>
 804b001:	8d 45 ac             	lea    -0x54(%ebp),%eax
 804b004:	89 04 24             	mov    %eax,(%esp)
 804b007:	e8 59 00 00 00       	call   804b065 <flush>
 804b00c:	8b 45 f0             	mov    -0x10(%ebp),%eax
 804b00f:	c9                   	leave  
 804b010:	c3                   	ret    

0804b011 <add_char>:
 804b011:	55                   	push   %ebp
 804b012:	89 e5                	mov    %esp,%ebp
 804b014:	83 ec 38             	sub    $0x38,%esp
 804b017:	8b 45 08             	mov    0x8(%ebp),%eax
 804b01a:	88 45 e4             	mov    %al,-0x1c(%ebp)
 804b01d:	8b 45 0c             	mov    0xc(%ebp),%eax
 804b020:	89 45 f4             	mov    %eax,-0xc(%ebp)
 804b023:	8b 45 f4             	mov    -0xc(%ebp),%eax
 804b026:	8b 40 40             	mov    0x40(%eax),%eax
 804b029:	8d 48 01             	lea    0x1(%eax),%ecx
 804b02c:	8b 55 f4             	mov    -0xc(%ebp),%edx
 804b02f:	89 4a 40             	mov    %ecx,0x40(%edx)
 804b032:	0f b6 55 e4          	movzbl -0x1c(%ebp),%edx
 804b036:	88 10                	mov    %dl,(%eax)
 804b038:	8b 45 f4             	mov    -0xc(%ebp),%eax
 804b03b:	8b 40 40             	mov    0x40(%eax),%eax
 804b03e:	8b 55 f4             	mov    -0xc(%ebp),%edx
 804b041:	83 c2 40             	add    $0x40,%edx
 804b044:	39 d0                	cmp    %edx,%eax
 804b046:	72 0b                	jb     804b053 <add_char+0x42>
 804b048:	8b 45 f4             	mov    -0xc(%ebp),%eax
 804b04b:	89 04 24             	mov    %eax,(%esp)
 804b04e:	e8 12 00 00 00       	call   804b065 <flush>
 804b053:	8b 45 f4             	mov    -0xc(%ebp),%eax
 804b056:	8b 40 44             	mov    0x44(%eax),%eax
 804b059:	8d 50 01             	lea    0x1(%eax),%edx
 804b05c:	8b 45 f4             	mov    -0xc(%ebp),%eax
 804b05f:	89 50 44             	mov    %edx,0x44(%eax)
 804b062:	90                   	nop
 804b063:	c9                   	leave  
 804b064:	c3                   	ret    

0804b065 <flush>:
 804b065:	55                   	push   %ebp
 804b066:	89 e5                	mov    %esp,%ebp
 804b068:	83 ec 18             	sub    $0x18,%esp
 804b06b:	8b 45 08             	mov    0x8(%ebp),%eax
 804b06e:	8b 50 40             	mov    0x40(%eax),%edx
 804b071:	8b 45 08             	mov    0x8(%ebp),%eax
 804b074:	39 c2                	cmp    %eax,%edx
 804b076:	76 2a                	jbe    804b0a2 <flush+0x3d>
 804b078:	8b 45 08             	mov    0x8(%ebp),%eax
 804b07b:	8b 40 40             	mov    0x40(%eax),%eax
 804b07e:	89 c2                	mov    %eax,%edx
 804b080:	8b 45 08             	mov    0x8(%ebp),%eax
 804b083:	29 c2                	sub    %eax,%edx
 804b085:	89 d0                	mov    %edx,%eax
 804b087:	89 c1                	mov    %eax,%ecx
 804b089:	8b 55 08             	mov    0x8(%ebp),%edx
 804b08c:	8b 45 08             	mov    0x8(%ebp),%eax
 804b08f:	8b 40 48             	mov    0x48(%eax),%eax
 804b092:	89 4c 24 08          	mov    %ecx,0x8(%esp)
 804b096:	89 54 24 04          	mov    %edx,0x4(%esp)
 804b09a:	89 04 24             	mov    %eax,(%esp)
 804b09d:	e8 30 fb ff ff       	call   804abd2 <write>
 804b0a2:	8b 55 08             	mov    0x8(%ebp),%edx
 804b0a5:	8b 45 08             	mov    0x8(%ebp),%eax
 804b0a8:	89 50 40             	mov    %edx,0x40(%eax)
 804b0ab:	90                   	nop
 804b0ac:	c9                   	leave  
 804b0ad:	c3                   	ret    

0804b0ae <debug_backtrace>:
 804b0ae:	55                   	push   %ebp
 804b0af:	89 e5                	mov    %esp,%ebp
 804b0b1:	83 ec 28             	sub    $0x28,%esp
 804b0b4:	8b 45 04             	mov    0x4(%ebp),%eax
 804b0b7:	89 44 24 04          	mov    %eax,0x4(%esp)
 804b0bb:	c7 04 24 64 b8 04 08 	movl   $0x804b864,(%esp)
 804b0c2:	e8 01 db ff ff       	call   8048bc8 <printf>
 804b0c7:	8b 45 00             	mov    0x0(%ebp),%eax
 804b0ca:	89 45 f4             	mov    %eax,-0xc(%ebp)
 804b0cd:	eb 20                	jmp    804b0ef <debug_backtrace+0x41>
 804b0cf:	8b 45 f4             	mov    -0xc(%ebp),%eax
 804b0d2:	83 c0 04             	add    $0x4,%eax
 804b0d5:	8b 00                	mov    (%eax),%eax
 804b0d7:	89 44 24 04          	mov    %eax,0x4(%esp)
 804b0db:	c7 04 24 73 b8 04 08 	movl   $0x804b873,(%esp)
 804b0e2:	e8 e1 da ff ff       	call   8048bc8 <printf>
 804b0e7:	8b 45 f4             	mov    -0xc(%ebp),%eax
 804b0ea:	8b 00                	mov    (%eax),%eax
 804b0ec:	89 45 f4             	mov    %eax,-0xc(%ebp)
 804b0ef:	8b 45 f4             	mov    -0xc(%ebp),%eax
 804b0f2:	3d ff 0f 00 00       	cmp    $0xfff,%eax
 804b0f7:	76 09                	jbe    804b102 <debug_backtrace+0x54>
 804b0f9:	8b 45 f4             	mov    -0xc(%ebp),%eax
 804b0fc:	8b 00                	mov    (%eax),%eax
 804b0fe:	85 c0                	test   %eax,%eax
 804b100:	75 cd                	jne    804b0cf <debug_backtrace+0x21>
 804b102:	c7 04 24 77 b8 04 08 	movl   $0x804b877,(%esp)
 804b109:	e8 52 fe ff ff       	call   804af60 <puts>
 804b10e:	0f b6 05 63 ce 04 08 	movzbl 0x804ce63,%eax
 804b115:	34 01                	xor    $0x1,%al
 804b117:	84 c0                	test   %al,%al
 804b119:	74 13                	je     804b12e <debug_backtrace+0x80>
 804b11b:	c6 05 63 ce 04 08 01 	movb   $0x1,0x804ce63
 804b122:	c7 04 24 7c b8 04 08 	movl   $0x804b87c,(%esp)
 804b129:	e8 32 fe ff ff       	call   804af60 <puts>
 804b12e:	90                   	nop
 804b12f:	c9                   	leave  
 804b130:	c3                   	ret    
